
.obj.o:     file format elf32-xtensa-le


Disassembly of section .text:

00400074 <_init-0x31c>:
  400074:	34 04 40 00 	
  400078:	88 33 41 00 	
  40007c:	50 04 40 00 	
  400080:	80 51 41 00 	
  400084:	00 00 00 00 	
  400088:	80 51 41 00 	
  40008c:	00 00 00 00 	
  400090:	80 51 41 00 	
  400094:	0c 50 41 00 	
  400098:	08 50 41 00 	
  40009c:	84 51 41 00 	
  4000a0:	00 00 00 00 	
  4000a4:	20 4e 41 00 	
  4000a8:	00 00 00 00 	
  4000ac:	88 51 41 00 	
  4000b0:	50 3c 41 00 	
  4000b4:	6c 3c 41 00 	
  4000b8:	70 3c 41 00 	
  4000bc:	84 3c 41 00 	
  4000c0:	a4 46 41 00 	
  4000c4:	38 46 41 00 	
  4000c8:	cc 45 41 00 	
  4000cc:	8c 3c 41 00 	
  4000d0:	ac 3c 41 00 	
  4000d4:	8c 3d 41 00 	
  4000d8:	a4 3d 41 00 	
  4000dc:	00 00 00 00 	
  4000e0:	48 3f 41 00 	
  4000e4:	4c 3f 41 00 	
  4000e8:	50 3f 41 00 	
  4000ec:	54 3f 41 00 	
  4000f0:	58 3f 41 00 	
  4000f4:	69 3f 41 00 	
  4000f8:	50 41 41 00 	
  4000fc:	30 41 41 00 	
  400100:	10 41 41 00 	
  400104:	00 20 00 00 	
  400108:	ff df ff ff 	
  40010c:	bc 3d 41 00 	
  400110:	ff ff ff 7f 	
  400114:	ff ff ff ff 	
  400118:	ff ff ef 7f 	
  40011c:	00 00 00 80 	
  400120:	00 00 c0 3f 	
  400124:	00 00 30 40 	
  400128:	00 00 e0 3f 	
  40012c:	67 66 66 66 	
  400130:	0a 00 00 00 	
  400134:	38 3f 41 00 	
  400138:	28 3f 41 00 	
  40013c:	7a 3f 41 00 	
  400140:	bc 94 40 00 	
  400144:	24 98 40 00 	
  400148:	14 50 41 00 	
  40014c:	84 3f 41 00 	
  400150:	80 0d 00 00 	
  400154:	e0 40 41 00 	
  400158:	7f f4 ff ff 	
  40015c:	7c 3f 41 00 	
  400160:	02 41 41 00 	
  400164:	0a 41 41 00 	
  400168:	0b 41 41 00 	
  40016c:	0e 41 41 00 	
  400170:	7a 3f 41 00 	
  400174:	00 00 f0 7f 	
  400178:	0f 27 00 00 	
  40017c:	ff ff 0f 00 	
  400180:	7b 3f 41 00 	
  400184:	00 00 f0 3f 	
  400188:	00 00 10 fe 	
  40018c:	00 00 f8 3f 	
  400190:	61 43 6f 63 	
  400194:	a7 87 d2 3f 	
  400198:	b3 c8 60 8b 	
  40019c:	28 8a c6 3f 	
  4001a0:	fb 79 9f 50 	
  4001a4:	13 44 d3 3f 	
  4001a8:	e0 41 41 00 	
  4001ac:	b8 41 41 00 	
  4001b0:	00 00 24 40 	
  4001b4:	00 00 1c 40 	
  4001b8:	00 00 c0 fc 	
  4001bc:	00 00 14 40 	
  4001c0:	00 08 00 00 	
  4001c4:	00 10 00 00 	
  4001c8:	01 00 40 20 	
  4001cc:	ff f7 ff ff 	
  4001d0:	64 6f 40 00 	
  4001d4:	a8 51 41 00 	
  4001d8:	28 82 40 00 	
  4001dc:	60 82 40 00 	
  4001e0:	94 82 40 00 	
  4001e4:	c8 82 40 00 	
  4001e8:	e8 1b 41 00 	
  4001ec:	a4 51 41 00 	
  4001f0:	a0 51 41 00 	
  4001f4:	50 70 40 00 	
  4001f8:	01 00 ff ff 	
  4001fc:	60 70 40 00 	
  400200:	7c 70 40 00 	
  400204:	70 41 41 00 	
  400208:	72 41 41 00 	
  40020c:	79 41 41 00 	
  400210:	00 f0 00 00 	
  400214:	79 41 41 00 	
  400218:	39 8e e3 38 	
  40021c:	00 00 ff ff 	
  400220:	00 00 00 ff 	
  400224:	00 00 00 f0 	
  400228:	00 00 00 c0 	
  40022c:	80 41 41 00 	
  400230:	00 00 08 00 	
  400234:	00 00 00 00 	
  400238:	00 00 10 00 	
  40023c:	b4 51 41 00 	
  400240:	b0 51 41 00 	
  400244:	d8 7f 40 00 	
  400248:	00 00 50 43 	
  40024c:	ff ff 0f 80 	
  400250:	00 00 c0 7f 	
  400254:	08 02 ff ff 	
  400258:	ff ef ff ff 	
  40025c:	ff 00 00 00 	
  400260:	00 ff 00 00 	
  400264:	00 00 ff 00 	
  400268:	40 40 40 40 	
  40026c:	1f 4e 00 00 	
  400270:	d0 42 41 00 	
  400274:	a8 42 41 00 	
  400278:	ff ff ef ff 	
  40027c:	4d 3f 41 00 	
  400280:	05 41 41 00 	
  400284:	55 3f 41 00 	
  400288:	bc 42 41 00 	
  40028c:	00 00 f8 ff 	
  400290:	00 00 b0 fc 	
  400294:	00 00 a0 7c 	
  400298:	00 00 90 7c 	
  40029c:	00 00 50 03 	
  4002a0:	e8 42 41 00 	
  4002a4:	00 00 70 03 	
  4002a8:	00 00 b0 06 	
  4002ac:	00 00 a0 06 	
  4002b0:	01 00 10 80 	
  4002b4:	00 00 f0 ff 	
  4002b8:	00 00 00 40 	
  4002bc:	00 00 f0 bf 	
  4002c0:	00 00 e0 7f 	
  4002c4:	ff ff 9f 7c 	
  4002c8:	00 00 c0 ff 	
  4002cc:	ff ff df 41 	
  4002d0:	95 35 a0 94 	
  4002d4:	ff ff df 3f 	
  4002d8:	35 e5 af 35 	
  4002dc:	ff ff cf 3f 	
  4002e0:	00 00 50 39 	
  4002e4:	ff ff 7f 7f 	
  4002e8:	10 43 41 00 	
  4002ec:	30 43 41 00 	
  4002f0:	10 44 41 00 	
  4002f4:	28 44 41 00 	
  4002f8:	69 3f 41 00 	
  4002fc:	58 3f 41 00 	
  400300:	40 44 41 00 	
  400304:	bc 45 41 00 	
  400308:	ac 45 41 00 	
  40030c:	a4 47 41 00 	
  400310:	c4 47 41 00 	
  400314:	a4 48 41 00 	
  400318:	bc 48 41 00 	
  40031c:	48 3f 41 00 	
  400320:	4c 3f 41 00 	
  400324:	50 3f 41 00 	
  400328:	54 3f 41 00 	
  40032c:	58 3f 41 00 	
  400330:	69 3f 41 00 	
  400334:	d4 48 41 00 	
  400338:	50 4a 41 00 	
  40033c:	40 4a 41 00 	
  400340:	7a 3f 41 00 	
  400344:	60 4a 41 00 	
  400348:	80 4a 41 00 	
  40034c:	60 4b 41 00 	
  400350:	78 4b 41 00 	
  400354:	69 3f 41 00 	
  400358:	58 3f 41 00 	
  40035c:	90 4b 41 00 	
  400360:	0c 4d 41 00 	
  400364:	fc 4c 41 00 	
  400368:	80 ff ff 7f 	
  40036c:	fe ff ff 7f 	
  400370:	b8 51 41 00 	
  400374:	c0 51 41 00 	
  400378:	bc 51 41 00 	
  40037c:	c4 51 41 00 	
  400380:	ff ff 1f 00 	
  400384:	00 00 00 38 	
  400388:	00 50 41 00 	
  40038c:	e4 03 40 00 	

00400390 <_init>:
  400390:	008136        	entry	a1, 64
  400393:	ff3881        	l32r	a8, 400074 <_init-0x31c>
  400396:	0008e0        	callx8	a8
  400399:	ff3781        	l32r	a8, 400078 <_init-0x318>
  40039c:	0008e0        	callx8	a8
  40039f:	f01d      	retw.n

004003a1 <_start>:
  4003a1:	ff3641        	l32r	a4, 40007c <_init-0x314>
  4003a4:	0004a0        	jx	a4
	...

004003a8 <deregister_tm_clones>:
  4003a8:	004136        	entry	a1, 32
  4003ab:	ff35a1        	l32r	a10, 400080 <_init-0x310>
  4003ae:	ff3681        	l32r	a8, 400088 <_init-0x308>
  4003b1:	0718a7        	beq	a8, a10, 4003bc <deregister_tm_clones+0x14>
  4003b4:	ff3481        	l32r	a8, 400084 <_init-0x30c>
  4003b7:	188c      	beqz.n	a8, 4003bc <deregister_tm_clones+0x14>
  4003b9:	0008e0        	callx8	a8
  4003bc:	f01d      	retw.n
	...

004003c0 <register_tm_clones>:
  4003c0:	004136        	entry	a1, 32
  4003c3:	ff2fa1        	l32r	a10, 400080 <_init-0x310>
  4003c6:	ff30b1        	l32r	a11, 400088 <_init-0x308>
  4003c9:	c0bba0        	sub	a11, a11, a10
  4003cc:	21b2b0        	srai	a11, a11, 2
  4003cf:	058fb0        	extui	a8, a11, 31, 1
  4003d2:	b8ba      	add.n	a11, a8, a11
  4003d4:	21b1b0        	srai	a11, a11, 1
  4003d7:	6b8c      	beqz.n	a11, 4003e1 <register_tm_clones+0x21>
  4003d9:	ff2c81        	l32r	a8, 40008c <_init-0x304>
  4003dc:	188c      	beqz.n	a8, 4003e1 <register_tm_clones+0x21>
  4003de:	0008e0        	callx8	a8
  4003e1:	f01d      	retw.n
	...

004003e4 <__do_global_dtors_aux>:
  4003e4:	004136        	entry	a1, 32
  4003e7:	ff2a21        	l32r	a2, 400090 <_init-0x300>
  4003ea:	000232        	l8ui	a3, a2, 0
  4003ed:	e3fc      	bnez.n	a3, 40042f <__do_global_dtors_aux+0x4b>
  4003ef:	ff2a31        	l32r	a3, 400098 <_init-0x2f8>
  4003f2:	ff2841        	l32r	a4, 400094 <_init-0x2fc>
  4003f5:	035d      	mov.n	a5, a3
  4003f7:	c04430        	sub	a4, a4, a3
  4003fa:	214240        	srai	a4, a4, 2
  4003fd:	440b      	addi.n	a4, a4, -1
  4003ff:	ff2731        	l32r	a3, 40009c <_init-0x2f4>
  400402:	000386        	j	400414 <__do_global_dtors_aux+0x30>
  400405:	00          	.byte 00
  400406:	881b      	addi.n	a8, a8, 1
  400408:	0389      	s32i.n	a8, a3, 0
  40040a:	1188e0        	slli	a8, a8, 2
  40040d:	858a      	add.n	a8, a5, a8
  40040f:	0888      	l32i.n	a8, a8, 0
  400411:	0008e0        	callx8	a8
  400414:	0388      	l32i.n	a8, a3, 0
  400416:	ec3847        	bltu	a8, a4, 400406 <__do_global_dtors_aux+0x22>
  400419:	fff8e5        	call8	4003a8 <deregister_tm_clones>
  40041c:	ff2131        	l32r	a3, 4000a0 <_init-0x2f0>
  40041f:	738c      	beqz.n	a3, 40042a <__do_global_dtors_aux+0x46>
  400421:	ff20a1        	l32r	a10, 4000a4 <_init-0x2ec>
  400424:	ff1f81        	l32r	a8, 4000a0 <_init-0x2f0>
  400427:	0008e0        	callx8	a8
  40042a:	130c      	movi.n	a3, 1
  40042c:	004232        	s8i	a3, a2, 0
  40042f:	f01d      	retw.n
  400431:	000000        	ill

00400434 <frame_dummy>:
  400434:	004136        	entry	a1, 32
  400437:	ff1c81        	l32r	a8, 4000a8 <_init-0x2e8>
  40043a:	00b816        	beqz	a8, 400449 <frame_dummy+0x15>
  40043d:	ff1bb1        	l32r	a11, 4000ac <_init-0x2e4>
  400440:	ff19a1        	l32r	a10, 4000a4 <_init-0x2ec>
  400443:	ff1981        	l32r	a8, 4000a8 <_init-0x2e8>
  400446:	0008e0        	callx8	a8
  400449:	fff765        	call8	4003c0 <register_tm_clones>
  40044c:	f01d      	retw.n
	...

00400450 <main>:
  400450:	008136        	entry	a1, 64
  400453:	017d      	mov.n	a7, a1
  400455:	020c      	movi.n	a2, 0
  400457:	1729      	s32i.n	a2, a7, 4
  400459:	120c      	movi.n	a2, 1
  40045b:	2729      	s32i.n	a2, a7, 8
  40045d:	ff1421        	l32r	a2, 4000b0 <_init-0x2e0>
  400460:	02ad      	mov.n	a10, a2
  400462:	000825        	call8	4004e4 <printf>
  400465:	10c732        	addi	a3, a7, 16
  400468:	ff1321        	l32r	a2, 4000b4 <_init-0x2dc>
  40046b:	20b330        	or	a11, a3, a3
  40046e:	20a220        	or	a10, a2, a2
  400471:	000ae5        	call8	400520 <scanf>
  400474:	ff1121        	l32r	a2, 4000b8 <_init-0x2d8>
  400477:	02ad      	mov.n	a10, a2
  400479:	0006a5        	call8	4004e4 <printf>
  40047c:	120c      	movi.n	a2, 1
  40047e:	0729      	s32i.n	a2, a7, 0
  400480:	000806        	j	4004a4 <main+0x54>
  400483:	00          	.byte 00
  400484:	ff0e21        	l32r	a2, 4000bc <_init-0x2d4>
  400487:	17b8      	l32i.n	a11, a7, 4
  400489:	02ad      	mov.n	a10, a2
  40048b:	0005a5        	call8	4004e4 <printf>
  40048e:	1738      	l32i.n	a3, a7, 4
  400490:	2728      	l32i.n	a2, a7, 8
  400492:	232a      	add.n	a2, a3, a2
  400494:	3729      	s32i.n	a2, a7, 12
  400496:	2728      	l32i.n	a2, a7, 8
  400498:	1729      	s32i.n	a2, a7, 4
  40049a:	3728      	l32i.n	a2, a7, 12
  40049c:	2729      	s32i.n	a2, a7, 8
  40049e:	0728      	l32i.n	a2, a7, 0
  4004a0:	221b      	addi.n	a2, a2, 1
  4004a2:	0729      	s32i.n	a2, a7, 0
  4004a4:	4738      	l32i.n	a3, a7, 16
  4004a6:	0728      	l32i.n	a2, a7, 0
  4004a8:	d8a327        	bge	a3, a2, 400484 <main+0x34>
  4004ab:	020c      	movi.n	a2, 0
  4004ad:	f01d      	retw.n
	...

004004b0 <_printf_r>:
  4004b0:	00a136        	entry	a1, 80
  4004b3:	6149      	s32i.n	a4, a1, 24
  4004b5:	7159      	s32i.n	a5, a1, 28
  4004b7:	8169      	s32i.n	a6, a1, 32
  4004b9:	9179      	s32i.n	a7, a1, 36
  4004bb:	728c      	beqz.n	a2, 4004c6 <_printf_r+0x16>
  4004bd:	6288      	l32i.n	a8, a2, 24
  4004bf:	38cc      	bnez.n	a8, 4004c6 <_printf_r+0x16>
  4004c1:	02ad      	mov.n	a10, a2
  4004c3:	06c4a5        	call8	40710c <__sinit>
  4004c6:	0222b2        	l32i	a11, a2, 8
  4004c9:	10c1e2        	addi	a14, a1, 16
  4004cc:	30c1d2        	addi	a13, a1, 48
  4004cf:	08a0f2        	movi	a15, 8
  4004d2:	20c330        	or	a12, a3, a3
  4004d5:	02ad      	mov.n	a10, a2
  4004d7:	11e9      	s32i.n	a14, a1, 4
  4004d9:	01d9      	s32i.n	a13, a1, 0
  4004db:	21f9      	s32i.n	a15, a1, 8
  4004dd:	005725        	call8	400a50 <_vfprintf_r>
  4004e0:	0a2d      	mov.n	a2, a10
  4004e2:	f01d      	retw.n

004004e4 <printf>:
  4004e4:	00a136        	entry	a1, 80
  4004e7:	056132        	s32i	a3, a1, 20
  4004ea:	066142        	s32i	a4, a1, 24
  4004ed:	7159      	s32i.n	a5, a1, 28
  4004ef:	086162        	s32i	a6, a1, 32
  4004f2:	9179      	s32i.n	a7, a1, 36
  4004f4:	132225        	call8	413718 <__getreent>
  4004f7:	0a3d      	mov.n	a3, a10
  4004f9:	5a8c      	beqz.n	a10, 400502 <printf+0x1e>
  4004fb:	6a88      	l32i.n	a8, a10, 24
  4004fd:	18cc      	bnez.n	a8, 400502 <printf+0x1e>
  4004ff:	06c0e5        	call8	40710c <__sinit>
  400502:	0223b2        	l32i	a11, a3, 8
  400505:	10c1e2        	addi	a14, a1, 16
  400508:	30c1d2        	addi	a13, a1, 48
  40050b:	04a0f2        	movi	a15, 4
  40050e:	20c220        	or	a12, a2, a2
  400511:	03ad      	mov.n	a10, a3
  400513:	11e9      	s32i.n	a14, a1, 4
  400515:	01d9      	s32i.n	a13, a1, 0
  400517:	21f9      	s32i.n	a15, a1, 8
  400519:	005365        	call8	400a50 <_vfprintf_r>
  40051c:	0a2d      	mov.n	a2, a10
  40051e:	f01d      	retw.n

00400520 <scanf>:
  400520:	00a136        	entry	a1, 80
  400523:	056132        	s32i	a3, a1, 20
  400526:	066142        	s32i	a4, a1, 24
  400529:	7159      	s32i.n	a5, a1, 28
  40052b:	086162        	s32i	a6, a1, 32
  40052e:	9179      	s32i.n	a7, a1, 36
  400530:	131e65        	call8	413718 <__getreent>
  400533:	0a3d      	mov.n	a3, a10
  400535:	5a8c      	beqz.n	a10, 40053e <scanf+0x1e>
  400537:	6a88      	l32i.n	a8, a10, 24
  400539:	18cc      	bnez.n	a8, 40053e <scanf+0x1e>
  40053b:	06bd25        	call8	40710c <__sinit>
  40053e:	0123b2        	l32i	a11, a3, 4
  400541:	10c1e2        	addi	a14, a1, 16
  400544:	30c1d2        	addi	a13, a1, 48
  400547:	04a0f2        	movi	a15, 4
  40054a:	20c220        	or	a12, a2, a2
  40054d:	03ad      	mov.n	a10, a3
  40054f:	11e9      	s32i.n	a14, a1, 4
  400551:	01d9      	s32i.n	a13, a1, 0
  400553:	21f9      	s32i.n	a15, a1, 8
  400555:	05af25        	call8	406048 <_vfscanf_r>
  400558:	0a2d      	mov.n	a2, a10
  40055a:	f01d      	retw.n

0040055c <_scanf_r>:
  40055c:	00a136        	entry	a1, 80
  40055f:	6149      	s32i.n	a4, a1, 24
  400561:	7159      	s32i.n	a5, a1, 28
  400563:	8169      	s32i.n	a6, a1, 32
  400565:	9179      	s32i.n	a7, a1, 36
  400567:	728c      	beqz.n	a2, 400572 <_scanf_r+0x16>
  400569:	6288      	l32i.n	a8, a2, 24
  40056b:	38cc      	bnez.n	a8, 400572 <_scanf_r+0x16>
  40056d:	02ad      	mov.n	a10, a2
  40056f:	06b9e5        	call8	40710c <__sinit>
  400572:	0122b2        	l32i	a11, a2, 4
  400575:	10c1e2        	addi	a14, a1, 16
  400578:	30c1d2        	addi	a13, a1, 48
  40057b:	08a0f2        	movi	a15, 8
  40057e:	20c330        	or	a12, a3, a3
  400581:	02ad      	mov.n	a10, a2
  400583:	11e9      	s32i.n	a14, a1, 4
  400585:	01d9      	s32i.n	a13, a1, 0
  400587:	21f9      	s32i.n	a15, a1, 8
  400589:	05abe5        	call8	406048 <_vfscanf_r>
  40058c:	0a2d      	mov.n	a2, a10
  40058e:	f01d      	retw.n

00400590 <get_arg$isra$0>:
  400590:	008136        	entry	a1, 64
  400593:	102182        	l32i	a8, a1, 64
  400596:	2129      	s32i.n	a2, a1, 8
  400598:	3159      	s32i.n	a5, a1, 12
  40059a:	0528      	l32i.n	a2, a5, 0
  40059c:	2198      	l32i.n	a9, a1, 8
  40059e:	0858      	l32i.n	a5, a8, 0
  4005a0:	933550        	movnez	a3, a5, a5
  4005a3:	0199      	s32i.n	a9, a1, 0
  4005a5:	00e146        	j	40092e <get_arg$isra$0+0x39e>
  4005a8:	331b      	addi.n	a3, a3, 1
  4005aa:	000382        	l8ui	a8, a3, 0
  4005ad:	150c      	movi.n	a5, 1
  4005af:	835980        	moveqz	a5, a9, a8
  4005b2:	745050        	extui	a5, a5, 0, 8
  4005b5:	c58c      	beqz.n	a5, 4005c5 <get_arg$isra$0+0x35>
  4005b7:	dbc852        	addi	a5, a8, -37
  4005ba:	1a0c      	movi.n	a10, 1
  4005bc:	83a950        	moveqz	a10, a9, a5
  4005bf:	7450a0        	extui	a5, a10, 0, 8
  4005c2:	fe2556        	bnez	a5, 4005a8 <get_arg$isra$0+0x18>
  4005c5:	41b816        	beqz	a8, 4009e4 <get_arg$isra$0+0x454>
  4005c8:	050c      	movi.n	a5, 0
  4005ca:	a31b      	addi.n	a10, a3, 1
  4005cc:	05ed      	mov.n	a14, a5
  4005ce:	f97c      	movi.n	a9, -1
  4005d0:	05dd      	mov.n	a13, a5
  4005d2:	1159      	s32i.n	a5, a1, 4
  4005d4:	000086        	j	4005da <get_arg$isra$0+0x4a>
  4005d7:	00          	.byte 00
  4005d8:	03ad      	mov.n	a10, a3
  4005da:	feb9c1        	l32r	a12, 4000c0 <_init-0x2d0>
  4005dd:	000a82        	l8ui	a8, a10, 0
  4005e0:	3a1b      	addi.n	a3, a10, 1
  4005e2:	bc8a      	add.n	a11, a12, a8
  4005e4:	000bf2        	l8ui	a15, a11, 0
  4005e7:	11b8      	l32i.n	a11, a1, 4
  4005e9:	11cbd0        	slli	a12, a11, 3
  4005ec:	ccba      	add.n	a12, a12, a11
  4005ee:	feb5b1        	l32r	a11, 4000c4 <_init-0x2cc>
  4005f1:	bbca      	add.n	a11, a11, a12
  4005f3:	bbfa      	add.n	a11, a11, a15
  4005f5:	000bb2        	l8ui	a11, a11, 0
  4005f8:	11b9      	s32i.n	a11, a1, 4
  4005fa:	feb3b1        	l32r	a11, 4000c8 <_init-0x2c8>
  4005fd:	bbca      	add.n	a11, a11, a12
  4005ff:	bbfa      	add.n	a11, a11, a15
  400601:	000bb2        	l8ui	a11, a11, 0
  400604:	bb0b      	addi.n	a11, a11, -1
  400606:	74b0b0        	extui	a11, a11, 0, 8
  400609:	028bb6        	bltui	a11, 8, 40060f <get_arg$isra$0+0x7f>
  40060c:	00c506        	j	400924 <get_arg$isra$0+0x394>
  40060f:	feafc1        	l32r	a12, 4000cc <_init-0x2c4>
  400612:	11bbe0        	slli	a11, a11, 2
  400615:	bcba      	add.n	a11, a12, a11
  400617:	0bb8      	l32i.n	a11, a11, 0
  400619:	000ba0        	jx	a11
  40061c:	9a0c      	movi.n	a10, 9
  40061e:	00bc46        	j	400913 <get_arg$isra$0+0x383>
  400621:	6aa0b2        	movi	a11, 106
  400624:	3118b7        	beq	a8, a11, 400659 <get_arg$isra$0+0xc9>
  400627:	0d3b87        	bltu	a11, a8, 400638 <get_arg$isra$0+0xa8>
  40062a:	cb4c      	movi.n	a11, 76
  40062c:	2418b7        	beq	a8, a11, 400654 <get_arg$isra$0+0xc4>
  40062f:	68a0b2        	movi	a11, 104
  400632:	2a98b7        	bne	a8, a11, 400660 <get_arg$isra$0+0xd0>
  400635:	00bac6        	j	400924 <get_arg$isra$0+0x394>
  400638:	74a0b2        	movi	a11, 116
  40063b:	0298b7        	bne	a8, a11, 400641 <get_arg$isra$0+0xb1>
  40063e:	00b886        	j	400924 <get_arg$isra$0+0x394>
  400641:	7aa0b2        	movi	a11, 122
  400644:	0298b7        	bne	a8, a11, 40064a <get_arg$isra$0+0xba>
  400647:	00b646        	j	400924 <get_arg$isra$0+0x394>
  40064a:	71a0b2        	movi	a11, 113
  40064d:	0818b7        	beq	a8, a11, 400659 <get_arg$isra$0+0xc9>
  400650:	000306        	j	400660 <get_arg$isra$0+0xd0>
  400653:	00          	.byte 00
  400654:	880c      	movi.n	a8, 8
  400656:	000706        	j	400676 <get_arg$isra$0+0xe6>
  400659:	082c      	movi.n	a8, 32
  40065b:	0005c6        	j	400676 <get_arg$isra$0+0xe6>
  40065e:	00          	.byte 00
  40065f:	00          	.byte 00
  400660:	010ab2        	l8ui	a11, a10, 1
  400663:	6ca082        	movi	a8, 108
  400666:	0a9b87        	bne	a11, a8, 400674 <get_arg$isra$0+0xe4>
  400669:	032c      	movi.n	a3, 32
  40066b:	20dd30        	or	a13, a13, a3
  40066e:	3a2b      	addi.n	a3, a10, 2
  400670:	00ac06        	j	400924 <get_arg$isra$0+0x394>
  400673:	00          	.byte 00
  400674:	081c      	movi.n	a8, 16
  400676:	20dd80        	or	a13, a13, a8
  400679:	00a9c6        	j	400924 <get_arg$isra$0+0x394>
  40067c:	bfc882        	addi	a8, a8, -65
  40067f:	748080        	extui	a8, a8, 0, 8
  400682:	7a3c      	movi.n	a10, 55
  400684:	442020        	extui	a2, a2, 0, 5
  400687:	263a87        	bltu	a10, a8, 4006b1 <get_arg$isra$0+0x121>
  40068a:	fe91a1        	l32r	a10, 4000d0 <_init-0x2c0>
  40068d:	1188e0        	slli	a8, a8, 2
  400690:	8a8a      	add.n	a8, a10, a8
  400692:	0888      	l32i.n	a8, a8, 0
  400694:	0008a0        	jx	a8
  400697:	026d47        	bbci	a13, 4, 40069d <get_arg$isra$0+0x10d>
  40069a:	00dbc6        	j	400a0d <get_arg$isra$0+0x47d>
  40069d:	026d57        	bbci	a13, 5, 4006a3 <get_arg$isra$0+0x113>
  4006a0:	00dd06        	j	400a18 <get_arg$isra$0+0x488>
  4006a3:	00e206        	j	400a2f <get_arg$isra$0+0x49f>
  4006a6:	00          	.byte 00
  4006a7:	00          	.byte 00
  4006a8:	026d47        	bbci	a13, 4, 4006ae <get_arg$isra$0+0x11e>
  4006ab:	00dd46        	j	400a24 <get_arg$isra$0+0x494>
  4006ae:	00df46        	j	400a2f <get_arg$isra$0+0x49f>
  4006b1:	090926        	beqi	a9, -1, 4006be <get_arg$isra$0+0x12e>
  4006b4:	1189e0        	slli	a8, a9, 2
  4006b7:	878a      	add.n	a8, a7, a8
  4006b9:	0859      	s32i.n	a5, a8, 0
  4006bb:	009946        	j	400924 <get_arg$isra$0+0x394>
  4006be:	850b      	addi.n	a8, a5, -1
  4006c0:	0268b6        	bltui	a8, 6, 4006c6 <get_arg$isra$0+0x136>
  4006c3:	002e46        	j	400780 <get_arg$isra$0+0x1f0>
  4006c6:	fe83a1        	l32r	a10, 4000d4 <_init-0x2bc>
  4006c9:	1188e0        	slli	a8, a8, 2
  4006cc:	8a8a      	add.n	a8, a10, a8
  4006ce:	0888      	l32i.n	a8, a8, 0
  4006d0:	0008a0        	jx	a8
  4006d3:	1182d0        	slli	a8, a2, 3
  4006d6:	921b      	addi.n	a9, a2, 1
  4006d8:	2428      	l32i.n	a2, a4, 8
  4006da:	851c      	movi.n	a5, 24
  4006dc:	a24b      	addi.n	a10, a2, 4
  4006de:	24a9      	s32i.n	a10, a4, 8
  4006e0:	868a      	add.n	a8, a6, a8
  4006e2:	0725a7        	blt	a5, a10, 4006ed <get_arg$isra$0+0x15d>
  4006e5:	1428      	l32i.n	a2, a4, 4
  4006e7:	0002c6        	j	4006f6 <get_arg$isra$0+0x166>
  4006ea:	00          	.byte 00
  4006eb:	00          	.byte 00
  4006ec:	00          	.byte 00
  4006ed:	032527        	blt	a5, a2, 4006f4 <get_arg$isra$0+0x164>
  4006f0:	422c      	movi.n	a2, 36
  4006f2:	2429      	s32i.n	a2, a4, 8
  4006f4:	0428      	l32i.n	a2, a4, 0
  4006f6:	2458      	l32i.n	a5, a4, 8
  4006f8:	225a      	add.n	a2, a2, a5
  4006fa:	fcc222        	addi	a2, a2, -4
  4006fd:	0228      	l32i.n	a2, a2, 0
  4006ff:	150c      	movi.n	a5, 1
  400701:	0829      	s32i.n	a2, a8, 0
  400703:	092d      	mov.n	a2, a9
  400705:	f97c      	movi.n	a9, -1
  400707:	008646        	j	400924 <get_arg$isra$0+0x394>
  40070a:	2458      	l32i.n	a5, a4, 8
  40070c:	1182d0        	slli	a8, a2, 3
  40070f:	921b      	addi.n	a9, a2, 1
  400711:	557b      	addi.n	a5, a5, 7
  400713:	827c      	movi.n	a2, -8
  400715:	105520        	and	a5, a5, a2
  400718:	a58b      	addi.n	a10, a5, 8
  40071a:	24a9      	s32i.n	a10, a4, 8
  40071c:	821c      	movi.n	a2, 24
  40071e:	868a      	add.n	a8, a6, a8
  400720:	0522a7        	blt	a2, a10, 400729 <get_arg$isra$0+0x199>
  400723:	1428      	l32i.n	a2, a4, 4
  400725:	000246        	j	400732 <get_arg$isra$0+0x1a2>
  400728:	00          	.byte 00
  400729:	032257        	blt	a2, a5, 400730 <get_arg$isra$0+0x1a0>
  40072c:	822c      	movi.n	a2, 40
  40072e:	2429      	s32i.n	a2, a4, 8
  400730:	0428      	l32i.n	a2, a4, 0
  400732:	2458      	l32i.n	a5, a4, 8
  400734:	225a      	add.n	a2, a2, a5
  400736:	f8c222        	addi	a2, a2, -8
  400739:	02a8      	l32i.n	a10, a2, 0
  40073b:	12b8      	l32i.n	a11, a2, 4
  40073d:	250c      	movi.n	a5, 2
  40073f:	092d      	mov.n	a2, a9
  400741:	08a9      	s32i.n	a10, a8, 0
  400743:	18b9      	s32i.n	a11, a8, 4
  400745:	f97c      	movi.n	a9, -1
  400747:	007646        	j	400924 <get_arg$isra$0+0x394>
  40074a:	1182d0        	slli	a8, a2, 3
  40074d:	921b      	addi.n	a9, a2, 1
  40074f:	2428      	l32i.n	a2, a4, 8
  400751:	851c      	movi.n	a5, 24
  400753:	a24b      	addi.n	a10, a2, 4
  400755:	24a9      	s32i.n	a10, a4, 8
  400757:	868a      	add.n	a8, a6, a8
  400759:	0425a7        	blt	a5, a10, 400761 <get_arg$isra$0+0x1d1>
  40075c:	1428      	l32i.n	a2, a4, 4
  40075e:	000206        	j	40076a <get_arg$isra$0+0x1da>
  400761:	032527        	blt	a5, a2, 400768 <get_arg$isra$0+0x1d8>
  400764:	422c      	movi.n	a2, 36
  400766:	2429      	s32i.n	a2, a4, 8
  400768:	0428      	l32i.n	a2, a4, 0
  40076a:	2458      	l32i.n	a5, a4, 8
  40076c:	225a      	add.n	a2, a2, a5
  40076e:	fcc222        	addi	a2, a2, -4
  400771:	0228      	l32i.n	a2, a2, 0
  400773:	650c      	movi.n	a5, 6
  400775:	0829      	s32i.n	a2, a8, 0
  400777:	092d      	mov.n	a2, a9
  400779:	f97c      	movi.n	a9, -1
  40077b:	006946        	j	400924 <get_arg$isra$0+0x394>
  40077e:	00          	.byte 00
  40077f:	00          	.byte 00
  400780:	1182d0        	slli	a8, a2, 3
  400783:	921b      	addi.n	a9, a2, 1
  400785:	2428      	l32i.n	a2, a4, 8
  400787:	851c      	movi.n	a5, 24
  400789:	a24b      	addi.n	a10, a2, 4
  40078b:	24a9      	s32i.n	a10, a4, 8
  40078d:	868a      	add.n	a8, a6, a8
  40078f:	0425a7        	blt	a5, a10, 400797 <get_arg$isra$0+0x207>
  400792:	1428      	l32i.n	a2, a4, 4
  400794:	000206        	j	4007a0 <get_arg$isra$0+0x210>
  400797:	032527        	blt	a5, a2, 40079e <get_arg$isra$0+0x20e>
  40079a:	422c      	movi.n	a2, 36
  40079c:	2429      	s32i.n	a2, a4, 8
  40079e:	0428      	l32i.n	a2, a4, 0
  4007a0:	2458      	l32i.n	a5, a4, 8
  4007a2:	225a      	add.n	a2, a2, a5
  4007a4:	fcc222        	addi	a2, a2, -4
  4007a7:	0228      	l32i.n	a2, a2, 0
  4007a9:	050c      	movi.n	a5, 0
  4007ab:	0829      	s32i.n	a2, a8, 0
  4007ad:	092d      	mov.n	a2, a9
  4007af:	f97c      	movi.n	a9, -1
  4007b1:	005bc6        	j	400924 <get_arg$isra$0+0x394>
  4007b4:	1182d0        	slli	a8, a2, 3
  4007b7:	921b      	addi.n	a9, a2, 1
  4007b9:	2428      	l32i.n	a2, a4, 8
  4007bb:	851c      	movi.n	a5, 24
  4007bd:	a24b      	addi.n	a10, a2, 4
  4007bf:	24a9      	s32i.n	a10, a4, 8
  4007c1:	868a      	add.n	a8, a6, a8
  4007c3:	0625a7        	blt	a5, a10, 4007cd <get_arg$isra$0+0x23d>
  4007c6:	1428      	l32i.n	a2, a4, 4
  4007c8:	000286        	j	4007d6 <get_arg$isra$0+0x246>
  4007cb:	00          	.byte 00
  4007cc:	00          	.byte 00
  4007cd:	032527        	blt	a5, a2, 4007d4 <get_arg$isra$0+0x244>
  4007d0:	422c      	movi.n	a2, 36
  4007d2:	2429      	s32i.n	a2, a4, 8
  4007d4:	0428      	l32i.n	a2, a4, 0
  4007d6:	2458      	l32i.n	a5, a4, 8
  4007d8:	225a      	add.n	a2, a2, a5
  4007da:	fcc222        	addi	a2, a2, -4
  4007dd:	0228      	l32i.n	a2, a2, 0
  4007df:	350c      	movi.n	a5, 3
  4007e1:	0829      	s32i.n	a2, a8, 0
  4007e3:	092d      	mov.n	a2, a9
  4007e5:	f97c      	movi.n	a9, -1
  4007e7:	004e46        	j	400924 <get_arg$isra$0+0x394>
  4007ea:	2458      	l32i.n	a5, a4, 8
  4007ec:	1182d0        	slli	a8, a2, 3
  4007ef:	921b      	addi.n	a9, a2, 1
  4007f1:	557b      	addi.n	a5, a5, 7
  4007f3:	827c      	movi.n	a2, -8
  4007f5:	105520        	and	a5, a5, a2
  4007f8:	a58b      	addi.n	a10, a5, 8
  4007fa:	24a9      	s32i.n	a10, a4, 8
  4007fc:	821c      	movi.n	a2, 24
  4007fe:	868a      	add.n	a8, a6, a8
  400800:	0522a7        	blt	a2, a10, 400809 <get_arg$isra$0+0x279>
  400803:	1428      	l32i.n	a2, a4, 4
  400805:	000246        	j	400812 <get_arg$isra$0+0x282>
  400808:	00          	.byte 00
  400809:	032257        	blt	a2, a5, 400810 <get_arg$isra$0+0x280>
  40080c:	822c      	movi.n	a2, 40
  40080e:	2429      	s32i.n	a2, a4, 8
  400810:	0428      	l32i.n	a2, a4, 0
  400812:	2458      	l32i.n	a5, a4, 8
  400814:	225a      	add.n	a2, a2, a5
  400816:	f8c222        	addi	a2, a2, -8
  400819:	02a8      	l32i.n	a10, a2, 0
  40081b:	12b8      	l32i.n	a11, a2, 4
  40081d:	450c      	movi.n	a5, 4
  40081f:	092d      	mov.n	a2, a9
  400821:	08a9      	s32i.n	a10, a8, 0
  400823:	18b9      	s32i.n	a11, a8, 4
  400825:	f97c      	movi.n	a9, -1
  400827:	003e46        	j	400924 <get_arg$isra$0+0x394>
  40082a:	2488      	l32i.n	a8, a4, 8
  40082c:	8a7c      	movi.n	a10, -8
  40082e:	887b      	addi.n	a8, a8, 7
  400830:	1088a0        	and	a8, a8, a10
  400833:	b88b      	addi.n	a11, a8, 8
  400835:	24b9      	s32i.n	a11, a4, 8
  400837:	8a1c      	movi.n	a10, 24
  400839:	042ab7        	blt	a10, a11, 400841 <get_arg$isra$0+0x2b1>
  40083c:	1488      	l32i.n	a8, a4, 4
  40083e:	000246        	j	40084b <get_arg$isra$0+0x2bb>
  400841:	042a87        	blt	a10, a8, 400849 <get_arg$isra$0+0x2b9>
  400844:	882c      	movi.n	a8, 40
  400846:	026482        	s32i	a8, a4, 8
  400849:	0488      	l32i.n	a8, a4, 0
  40084b:	24a8      	l32i.n	a10, a4, 8
  40084d:	88aa      	add.n	a8, a8, a10
  40084f:	f8c882        	addi	a8, a8, -8
  400852:	08a8      	l32i.n	a10, a8, 0
  400854:	18b8      	l32i.n	a11, a8, 4
  400856:	1182d0        	slli	a8, a2, 3
  400859:	868a      	add.n	a8, a6, a8
  40085b:	08a9      	s32i.n	a10, a8, 0
  40085d:	18b9      	s32i.n	a11, a8, 4
  40085f:	221b      	addi.n	a2, a2, 1
  400861:	002fc6        	j	400924 <get_arg$isra$0+0x394>
  400864:	002782        	l32i	a8, a7, 0
  400867:	130866        	bnei	a8, -1, 40087e <get_arg$isra$0+0x2ee>
  40086a:	80a0c2        	movi	a12, 128
  40086d:	00a0b2        	movi	a11, 0
  400870:	20a770        	or	a10, a7, a7
  400873:	51d9      	s32i.n	a13, a1, 20
  400875:	61e9      	s32i.n	a14, a1, 24
  400877:	12d2e5        	call8	4135a4 <memset>
  40087a:	61e8      	l32i.n	a14, a1, 24
  40087c:	51d8      	l32i.n	a13, a1, 20
  40087e:	0188      	l32i.n	a8, a1, 0
  400880:	9e0b      	addi.n	a9, a14, -1
  400882:	538890        	max	a8, a8, a9
  400885:	000b46        	j	4008b6 <get_arg$isra$0+0x326>
  400888:	002782        	l32i	a8, a7, 0
  40088b:	170866        	bnei	a8, -1, 4008a6 <get_arg$isra$0+0x316>
  40088e:	80a0c2        	movi	a12, 128
  400891:	00a0b2        	movi	a11, 0
  400894:	20a770        	or	a10, a7, a7
  400897:	4199      	s32i.n	a9, a1, 16
  400899:	51d9      	s32i.n	a13, a1, 20
  40089b:	61e9      	s32i.n	a14, a1, 24
  40089d:	12d065        	call8	4135a4 <memset>
  4008a0:	61e8      	l32i.n	a14, a1, 24
  4008a2:	51d8      	l32i.n	a13, a1, 20
  4008a4:	4198      	l32i.n	a9, a1, 16
  4008a6:	ee0b      	addi.n	a14, a14, -1
  4008a8:	118ee0        	slli	a8, a14, 2
  4008ab:	878a      	add.n	a8, a7, a8
  4008ad:	0a0c      	movi.n	a10, 0
  4008af:	08a9      	s32i.n	a10, a8, 0
  4008b1:	0188      	l32i.n	a8, a1, 0
  4008b3:	5388e0        	max	a8, a8, a14
  4008b6:	0189      	s32i.n	a8, a1, 0
  4008b8:	001a06        	j	400924 <get_arg$isra$0+0x394>
  4008bb:	0a3d      	mov.n	a3, a10
  4008bd:	1182d0        	slli	a8, a2, 3
  4008c0:	b21b      	addi.n	a11, a2, 1
  4008c2:	2428      	l32i.n	a2, a4, 8
  4008c4:	8a1c      	movi.n	a10, 24
  4008c6:	c24b      	addi.n	a12, a2, 4
  4008c8:	24c9      	s32i.n	a12, a4, 8
  4008ca:	868a      	add.n	a8, a6, a8
  4008cc:	052ac7        	blt	a10, a12, 4008d5 <get_arg$isra$0+0x345>
  4008cf:	1428      	l32i.n	a2, a4, 4
  4008d1:	000246        	j	4008de <get_arg$isra$0+0x34e>
  4008d4:	00          	.byte 00
  4008d5:	032a27        	blt	a10, a2, 4008dc <get_arg$isra$0+0x34c>
  4008d8:	422c      	movi.n	a2, 36
  4008da:	2429      	s32i.n	a2, a4, 8
  4008dc:	0428      	l32i.n	a2, a4, 0
  4008de:	24a8      	l32i.n	a10, a4, 8
  4008e0:	22aa      	add.n	a2, a2, a10
  4008e2:	fcc222        	addi	a2, a2, -4
  4008e5:	0228      	l32i.n	a2, a2, 0
  4008e7:	0829      	s32i.n	a2, a8, 0
  4008e9:	0b2d      	mov.n	a2, a11
  4008eb:	000d46        	j	400924 <get_arg$isra$0+0x394>
  4008ee:	d0c8e2        	addi	a14, a8, -48
  4008f1:	9a0c      	movi.n	a10, 9
  4008f3:	000346        	j	400904 <get_arg$isra$0+0x374>
  4008f6:	00          	.byte 00
  4008f7:	00          	.byte 00
  4008f8:	11bee0        	slli	a11, a14, 2
  4008fb:	ebea      	add.n	a14, a11, a14
  4008fd:	11eef0        	slli	a14, a14, 1
  400900:	ee8a      	add.n	a14, a14, a8
  400902:	331b      	addi.n	a3, a3, 1
  400904:	000382        	l8ui	a8, a3, 0
  400907:	989c      	beqz.n	a8, 400924 <get_arg$isra$0+0x394>
  400909:	d0c882        	addi	a8, a8, -48
  40090c:	e8ba87        	bgeu	a10, a8, 4008f8 <get_arg$isra$0+0x368>
  40090f:	000446        	j	400924 <get_arg$isra$0+0x394>
  400912:	00          	.byte 00
  400913:	000382        	l8ui	a8, a3, 0
  400916:	d0c882        	addi	a8, a8, -48
  400919:	748080        	extui	a8, a8, 0, 8
  40091c:	043a87        	bltu	a10, a8, 400924 <get_arg$isra$0+0x394>
  40091f:	331b      	addi.n	a3, a3, 1
  400921:	fffb86        	j	400913 <get_arg$isra$0+0x383>
  400924:	11a8      	l32i.n	a10, a1, 4
  400926:	b80c      	movi.n	a8, 11
  400928:	021a87        	beq	a10, a8, 40092e <get_arg$isra$0+0x39e>
  40092b:	ff2a46        	j	4005d8 <get_arg$isra$0+0x48>
  40092e:	2188      	l32i.n	a8, a1, 8
  400930:	000352        	l8ui	a5, a3, 0
  400933:	062827        	blt	a8, a2, 40093d <get_arg$isra$0+0x3ad>
  400936:	358c      	beqz.n	a5, 40093d <get_arg$isra$0+0x3ad>
  400938:	090c      	movi.n	a9, 0
  40093a:	ff1b06        	j	4005aa <get_arg$isra$0+0x1a>
  40093d:	0188      	l32i.n	a8, a1, 0
  40093f:	2198      	l32i.n	a9, a1, 8
  400941:	839850        	moveqz	a9, a8, a5
  400944:	0199      	s32i.n	a9, a1, 0
  400946:	002686        	j	4009e4 <get_arg$isra$0+0x454>
  400949:	1158e0        	slli	a5, a8, 2
  40094c:	575a      	add.n	a5, a7, a5
  40094e:	0558      	l32i.n	a5, a5, 0
  400950:	2428      	l32i.n	a2, a4, 8
  400952:	550b      	addi.n	a5, a5, -1
  400954:	1198d0        	slli	a9, a8, 3
  400957:	6565f6        	bgeui	a5, 6, 4009c0 <get_arg$isra$0+0x430>
  40095a:	fddfa1        	l32r	a10, 4000d8 <_init-0x2b8>
  40095d:	1155e0        	slli	a5, a5, 2
  400960:	5a5a      	add.n	a5, a10, a5
  400962:	0558      	l32i.n	a5, a5, 0
  400964:	0005a0        	jx	a5
  400967:	227b      	addi.n	a2, a2, 7
  400969:	1022f0        	and	a2, a2, a15
  40096c:	528b      	addi.n	a5, a2, 8
  40096e:	2459      	s32i.n	a5, a4, 8
  400970:	042c57        	blt	a12, a5, 400978 <get_arg$isra$0+0x3e8>
  400973:	1428      	l32i.n	a2, a4, 4
  400975:	000186        	j	40097f <get_arg$isra$0+0x3ef>
  400978:	012c27        	blt	a12, a2, 40097d <get_arg$isra$0+0x3ed>
  40097b:	24e9      	s32i.n	a14, a4, 8
  40097d:	0428      	l32i.n	a2, a4, 0
  40097f:	2458      	l32i.n	a5, a4, 8
  400981:	969a      	add.n	a9, a6, a9
  400983:	225a      	add.n	a2, a2, a5
  400985:	f8c222        	addi	a2, a2, -8
  400988:	02a8      	l32i.n	a10, a2, 0
  40098a:	12b8      	l32i.n	a11, a2, 4
  40098c:	09a9      	s32i.n	a10, a9, 0
  40098e:	19b9      	s32i.n	a11, a9, 4
  400990:	001746        	j	4009f1 <get_arg$isra$0+0x461>
  400993:	227b      	addi.n	a2, a2, 7
  400995:	1022f0        	and	a2, a2, a15
  400998:	528b      	addi.n	a5, a2, 8
  40099a:	2459      	s32i.n	a5, a4, 8
  40099c:	042c57        	blt	a12, a5, 4009a4 <get_arg$isra$0+0x414>
  40099f:	1428      	l32i.n	a2, a4, 4
  4009a1:	000186        	j	4009ab <get_arg$isra$0+0x41b>
  4009a4:	012c27        	blt	a12, a2, 4009a9 <get_arg$isra$0+0x419>
  4009a7:	24e9      	s32i.n	a14, a4, 8
  4009a9:	0428      	l32i.n	a2, a4, 0
  4009ab:	2458      	l32i.n	a5, a4, 8
  4009ad:	969a      	add.n	a9, a6, a9
  4009af:	225a      	add.n	a2, a2, a5
  4009b1:	f8c222        	addi	a2, a2, -8
  4009b4:	02a8      	l32i.n	a10, a2, 0
  4009b6:	12b8      	l32i.n	a11, a2, 4
  4009b8:	09a9      	s32i.n	a10, a9, 0
  4009ba:	19b9      	s32i.n	a11, a9, 4
  4009bc:	000c46        	j	4009f1 <get_arg$isra$0+0x461>
  4009bf:	00          	.byte 00
  4009c0:	524b      	addi.n	a5, a2, 4
  4009c2:	2459      	s32i.n	a5, a4, 8
  4009c4:	042c57        	blt	a12, a5, 4009cc <get_arg$isra$0+0x43c>
  4009c7:	1428      	l32i.n	a2, a4, 4
  4009c9:	000186        	j	4009d3 <get_arg$isra$0+0x443>
  4009cc:	012c27        	blt	a12, a2, 4009d1 <get_arg$isra$0+0x441>
  4009cf:	24d9      	s32i.n	a13, a4, 8
  4009d1:	0428      	l32i.n	a2, a4, 0
  4009d3:	2458      	l32i.n	a5, a4, 8
  4009d5:	969a      	add.n	a9, a6, a9
  4009d7:	225a      	add.n	a2, a2, a5
  4009d9:	fcc222        	addi	a2, a2, -4
  4009dc:	0228      	l32i.n	a2, a2, 0
  4009de:	0929      	s32i.n	a2, a9, 0
  4009e0:	000346        	j	4009f1 <get_arg$isra$0+0x461>
  4009e3:	00          	.byte 00
  4009e4:	028d      	mov.n	a8, a2
  4009e6:	8c1c      	movi.n	a12, 24
  4009e8:	4d2c      	movi.n	a13, 36
  4009ea:	8f7c      	movi.n	a15, -8
  4009ec:	8e2c      	movi.n	a14, 40
  4009ee:	000046        	j	4009f3 <get_arg$isra$0+0x463>
  4009f1:	881b      	addi.n	a8, a8, 1
  4009f3:	0128      	l32i.n	a2, a1, 0
  4009f5:	022287        	blt	a2, a8, 4009fb <get_arg$isra$0+0x46b>
  4009f8:	ffd346        	j	400949 <get_arg$isra$0+0x3b9>
  4009fb:	3158      	l32i.n	a5, a1, 12
  4009fd:	2198      	l32i.n	a9, a1, 8
  4009ff:	0589      	s32i.n	a8, a5, 0
  400a01:	102182        	l32i	a8, a1, 64
  400a04:	1129d0        	slli	a2, a9, 3
  400a07:	0839      	s32i.n	a3, a8, 0
  400a09:	262a      	add.n	a2, a6, a2
  400a0b:	f01d      	retw.n
  400a0d:	150c      	movi.n	a5, 1
  400a0f:	020926        	beqi	a9, -1, 400a15 <get_arg$isra$0+0x485>
  400a12:	ff2786        	j	4006b4 <get_arg$isra$0+0x124>
  400a15:	ff2e86        	j	4006d3 <get_arg$isra$0+0x143>
  400a18:	250c      	movi.n	a5, 2
  400a1a:	020926        	beqi	a9, -1, 400a20 <get_arg$isra$0+0x490>
  400a1d:	ff24c6        	j	4006b4 <get_arg$isra$0+0x124>
  400a20:	ff3986        	j	40070a <get_arg$isra$0+0x17a>
  400a23:	00          	.byte 00
  400a24:	650c      	movi.n	a5, 6
  400a26:	020926        	beqi	a9, -1, 400a2c <get_arg$isra$0+0x49c>
  400a29:	ff21c6        	j	4006b4 <get_arg$isra$0+0x124>
  400a2c:	ff4686        	j	40074a <get_arg$isra$0+0x1ba>
  400a2f:	050c      	movi.n	a5, 0
  400a31:	020926        	beqi	a9, -1, 400a37 <get_arg$isra$0+0x4a7>
  400a34:	ff1f06        	j	4006b4 <get_arg$isra$0+0x124>
  400a37:	ff5146        	j	400780 <get_arg$isra$0+0x1f0>
  400a3a:	350c      	movi.n	a5, 3
  400a3c:	020926        	beqi	a9, -1, 400a42 <get_arg$isra$0+0x4b2>
  400a3f:	ff1c46        	j	4006b4 <get_arg$isra$0+0x124>
  400a42:	ff5b86        	j	4007b4 <get_arg$isra$0+0x224>
  400a45:	450c      	movi.n	a5, 4
  400a47:	020926        	beqi	a9, -1, 400a4d <get_arg$isra$0+0x4bd>
  400a4a:	ff1986        	j	4006b4 <get_arg$isra$0+0x124>
  400a4d:	ff6646        	j	4007ea <get_arg$isra$0+0x25a>

00400a50 <_vfprintf_r>:
  400a50:	062136        	entry	a1, 0x310
  400a53:	a46122        	s32i	a2, a1, 0x290
  400a56:	a421a2        	l32i	a10, a1, 0x290
  400a59:	a26132        	s32i	a3, a1, 0x288
  400a5c:	a36142        	s32i	a4, a1, 0x28c
  400a5f:	9c6152        	s32i	a5, a1, 0x270
  400a62:	9d6162        	s32i	a6, a1, 0x274
  400a65:	9e6172        	s32i	a7, a1, 0x278
  400a68:	0699a5        	call8	407404 <_localeconv_r>
  400a6b:	002aa2        	l32i	a10, a10, 0
  400a6e:	b361a2        	s32i	a10, a1, 0x2cc
  400a71:	0798e5        	call8	408400 <strlen>
  400a74:	a42182        	l32i	a8, a1, 0x290
  400a77:	af61a2        	s32i	a10, a1, 0x2bc
  400a7a:	788c      	beqz.n	a8, 400a85 <_vfprintf_r+0x35>
  400a7c:	6828      	l32i.n	a2, a8, 24
  400a7e:	32cc      	bnez.n	a2, 400a85 <_vfprintf_r+0x35>
  400a80:	08ad      	mov.n	a10, a8
  400a82:	0668a5        	call8	40710c <__sinit>
  400a85:	fd9c21        	l32r	a2, 4000f8 <_init-0x298>
  400a88:	a22192        	l32i	a9, a1, 0x288
  400a8b:	099927        	bne	a9, a2, 400a98 <_vfprintf_r+0x48>
  400a8e:	a42122        	l32i	a2, a1, 0x290
  400a91:	1228      	l32i.n	a2, a2, 4
  400a93:	000906        	j	400abb <_vfprintf_r+0x6b>
  400a96:	00          	.byte 00
  400a97:	00          	.byte 00
  400a98:	fd9921        	l32r	a2, 4000fc <_init-0x294>
  400a9b:	a22132        	l32i	a3, a1, 0x288
  400a9e:	0a9327        	bne	a3, a2, 400aac <_vfprintf_r+0x5c>
  400aa1:	a42182        	l32i	a8, a1, 0x290
  400aa4:	2888      	l32i.n	a8, a8, 8
  400aa6:	a26182        	s32i	a8, a1, 0x288
  400aa9:	000446        	j	400abe <_vfprintf_r+0x6e>
  400aac:	fd9521        	l32r	a2, 400100 <_init-0x290>
  400aaf:	a22192        	l32i	a9, a1, 0x288
  400ab2:	089927        	bne	a9, a2, 400abe <_vfprintf_r+0x6e>
  400ab5:	a42122        	l32i	a2, a1, 0x290
  400ab8:	032222        	l32i	a2, a2, 12
  400abb:	a26122        	s32i	a2, a1, 0x288
  400abe:	44a2b2        	movi	a11, 0x244
  400ac1:	10c132        	addi	a3, a1, 16
  400ac4:	80b3b0        	add	a11, a3, a11
  400ac7:	1a0c      	movi.n	a10, 1
  400ac9:	12c465        	call8	413710 <pthread_setcancelstate>
  400acc:	a22182        	l32i	a8, a1, 0x288
  400acf:	192822        	l32i	a2, a8, 100
  400ad2:	0be207        	bbsi	a2, 0, 400ae1 <_vfprintf_r+0x91>
  400ad5:	061822        	l16ui	a2, a8, 12
  400ad8:	05e297        	bbsi	a2, 9, 400ae1 <_vfprintf_r+0x91>
  400adb:	58c8a2        	addi	a10, a8, 88
  400ade:	128c25        	call8	4133a0 <__dummy_lock>
  400ae1:	a22192        	l32i	a9, a1, 0x288
  400ae4:	fd8831        	l32r	a3, 400104 <_init-0x28c>
  400ae7:	061942        	l16ui	a4, a9, 12
  400aea:	232480        	sext	a2, a4, 15
  400aed:	118347        	bany	a3, a4, 400b02 <_vfprintf_r+0xb2>
  400af0:	202230        	or	a2, a2, a3
  400af3:	065922        	s16i	a2, a9, 12
  400af6:	fd8431        	l32r	a3, 400108 <_init-0x288>
  400af9:	192922        	l32i	a2, a9, 100
  400afc:	102230        	and	a2, a2, a3
  400aff:	196922        	s32i	a2, a9, 100
  400b02:	a22132        	l32i	a3, a1, 0x288
  400b05:	061322        	l16ui	a2, a3, 12
  400b08:	046237        	bbci	a2, 3, 400b10 <_vfprintf_r+0xc0>
  400b0b:	042322        	l32i	a2, a3, 16
  400b0e:	72fc      	bnez.n	a2, 400b49 <_vfprintf_r+0xf9>
  400b10:	a221b2        	l32i	a11, a1, 0x288
  400b13:	a421a2        	l32i	a10, a1, 0x290
  400b16:	0557a5        	call8	406090 <__swsetup_r>
  400b19:	02ca16        	beqz	a10, 400b49 <_vfprintf_r+0xf9>
  400b1c:	a22182        	l32i	a8, a1, 0x288
  400b1f:	192822        	l32i	a2, a8, 100
  400b22:	0be207        	bbsi	a2, 0, 400b31 <_vfprintf_r+0xe1>
  400b25:	061822        	l16ui	a2, a8, 12
  400b28:	05e297        	bbsi	a2, 9, 400b31 <_vfprintf_r+0xe1>
  400b2b:	58c8a2        	addi	a10, a8, 88
  400b2e:	128725        	call8	4133a0 <__dummy_lock>
  400b31:	10c192        	addi	a9, a1, 16
  400b34:	44a2b2        	movi	a11, 0x244
  400b37:	9521a2        	l32i	a10, a1, 0x254
  400b3a:	b9ba      	add.n	a11, a9, a11
  400b3c:	f27c      	movi.n	a2, -1
  400b3e:	12bd25        	call8	413710 <pthread_setcancelstate>
  400b41:	ae6122        	s32i	a2, a1, 0x2b8
  400b44:	0ba186        	j	4039ce <_vfprintf_r+0x2f7e>
  400b47:	00          	.byte 00
  400b48:	00          	.byte 00
  400b49:	a22182        	l32i	a8, a1, 0x288
  400b4c:	a21c      	movi.n	a2, 26
  400b4e:	061832        	l16ui	a3, a8, 12
  400b51:	102320        	and	a2, a3, a2
  400b54:	409266        	bnei	a2, 10, 400b98 <_vfprintf_r+0x148>
  400b57:	079822        	l16si	a2, a8, 14
  400b5a:	03a296        	bltz	a2, 400b98 <_vfprintf_r+0x148>
  400b5d:	192822        	l32i	a2, a8, 100
  400b60:	08e207        	bbsi	a2, 0, 400b6c <_vfprintf_r+0x11c>
  400b63:	05e397        	bbsi	a3, 9, 400b6c <_vfprintf_r+0x11c>
  400b66:	58c8a2        	addi	a10, a8, 88
  400b69:	128365        	call8	4133a0 <__dummy_lock>
  400b6c:	10c192        	addi	a9, a1, 16
  400b6f:	44a2b2        	movi	a11, 0x244
  400b72:	9521a2        	l32i	a10, a1, 0x254
  400b75:	b9ba      	add.n	a11, a9, a11
  400b77:	12b9a5        	call8	413710 <pthread_setcancelstate>
  400b7a:	9c21d2        	l32i	a13, a1, 0x270
  400b7d:	9d21e2        	l32i	a14, a1, 0x274
  400b80:	9e21f2        	l32i	a15, a1, 0x278
  400b83:	a321c2        	l32i	a12, a1, 0x28c
  400b86:	a221b2        	l32i	a11, a1, 0x288
  400b89:	a421a2        	l32i	a10, a1, 0x290
  400b8c:	02e665        	call8	4039f4 <__sbprintf>
  400b8f:	ae61a2        	s32i	a10, a1, 0x2b8
  400b92:	0b8e06        	j	4039ce <_vfprintf_r+0x2f7e>
  400b95:	00          	.byte 00
  400b96:	00          	.byte 00
  400b97:	00          	.byte 00
  400b98:	f47c      	movi.n	a4, -1
  400b9a:	10c1b2        	addi	a11, a1, 16
  400b9d:	e4a132        	movi	a3, 0x1e4
  400ba0:	446142        	s32i	a4, a1, 0x110
  400ba3:	fd4e51        	l32r	a5, 4000dc <_init-0x2b4>
  400ba6:	fd4d41        	l32r	a4, 4000dc <_init-0x2b4>
  400ba9:	020c      	movi.n	a2, 0
  400bab:	3b3a      	add.n	a3, a11, a3
  400bad:	8d6132        	s32i	a3, a1, 0x234
  400bb0:	8f6122        	s32i	a2, a1, 0x23c
  400bb3:	8e6122        	s32i	a2, a1, 0x238
  400bb6:	976122        	s32i	a2, a1, 0x25c
  400bb9:	986122        	s32i	a2, a1, 0x260
  400bbc:	a76122        	s32i	a2, a1, 0x29c
  400bbf:	aa6142        	s32i	a4, a1, 0x2a8
  400bc2:	ab6152        	s32i	a5, a1, 0x2ac
  400bc5:	a06132        	s32i	a3, a1, 0x280
  400bc8:	b76122        	s32i	a2, a1, 0x2dc
  400bcb:	b66122        	s32i	a2, a1, 0x2d8
  400bce:	ad6122        	s32i	a2, a1, 0x2b4
  400bd1:	b16122        	s32i	a2, a1, 0x2c4
  400bd4:	b56122        	s32i	a2, a1, 0x2d4
  400bd7:	ae6122        	s32i	a2, a1, 0x2b8
  400bda:	9f6122        	s32i	a2, a1, 0x27c
  400bdd:	000146        	j	400be6 <_vfprintf_r+0x196>
  400be0:	a92152        	l32i	a5, a1, 0x2a4
  400be3:	a36152        	s32i	a5, a1, 0x28c
  400be6:	a32132        	l32i	a3, a1, 0x28c
  400be9:	000046        	j	400bee <_vfprintf_r+0x19e>
  400bec:	331b      	addi.n	a3, a3, 1
  400bee:	000322        	l8ui	a2, a3, 0
  400bf1:	428c      	beqz.n	a2, 400bf9 <_vfprintf_r+0x1a9>
  400bf3:	dbc222        	addi	a2, a2, -37
  400bf6:	ff2256        	bnez	a2, 400bec <_vfprintf_r+0x19c>
  400bf9:	a32182        	l32i	a8, a1, 0x28c
  400bfc:	c02380        	sub	a2, a3, a8
  400bff:	052216        	beqz	a2, 400c55 <_vfprintf_r+0x205>
  400c02:	8f2142        	l32i	a4, a1, 0x23c
  400c05:	a02192        	l32i	a9, a1, 0x280
  400c08:	442a      	add.n	a4, a4, a2
  400c0a:	8f6142        	s32i	a4, a1, 0x23c
  400c0d:	8e2142        	l32i	a4, a1, 0x238
  400c10:	10c1a2        	addi	a10, a1, 16
  400c13:	441b      	addi.n	a4, a4, 1
  400c15:	0989      	s32i.n	a8, a9, 0
  400c17:	1929      	s32i.n	a2, a9, 4
  400c19:	8e6142        	s32i	a4, a1, 0x238
  400c1c:	02da52        	addmi	a5, a10, 0x200
  400c1f:	0984e6        	bgei	a4, 8, 400c2c <_vfprintf_r+0x1dc>
  400c22:	998b      	addi.n	a9, a9, 8
  400c24:	a06192        	s32i	a9, a1, 0x280
  400c27:	000886        	j	400c4d <_vfprintf_r+0x1fd>
  400c2a:	00          	.byte 00
  400c2b:	00          	.byte 00
  400c2c:	10c1b2        	addi	a11, a1, 16
  400c2f:	24a2c2        	movi	a12, 0x224
  400c32:	80cbc0        	add	a12, a11, a12
  400c35:	a421a2        	l32i	a10, a1, 0x290
  400c38:	a221b2        	l32i	a11, a1, 0x288
  400c3b:	0ed6e5        	call8	40f9a8 <__sprint_r>
  400c3e:	002a16        	beqz	a10, 400c44 <_vfprintf_r+0x1f4>
  400c41:	0b4a06        	j	40396d <_vfprintf_r+0x2f1d>
  400c44:	f4a152        	movi	a5, 0x1f4
  400c47:	805150        	add	a5, a1, a5
  400c4a:	a06152        	s32i	a5, a1, 0x280
  400c4d:	ae2162        	l32i	a6, a1, 0x2b8
  400c50:	662a      	add.n	a6, a6, a2
  400c52:	ae6162        	s32i	a6, a1, 0x2b8
  400c55:	000322        	l8ui	a2, a3, 0
  400c58:	12cc      	bnez.n	a2, 400c5d <_vfprintf_r+0x20d>
  400c5a:	0b3786        	j	40393c <_vfprintf_r+0x2eec>
  400c5d:	10c152        	addi	a5, a1, 16
  400c60:	090c      	movi.n	a9, 0
  400c62:	02d522        	addmi	a2, a5, 0x200
  400c65:	040c      	movi.n	a4, 0
  400c67:	f87c      	movi.n	a8, -1
  400c69:	564242        	s8i	a4, a2, 86
  400c6c:	631b      	addi.n	a6, a3, 1
  400c6e:	9f2122        	l32i	a2, a1, 0x27c
  400c71:	a56182        	s32i	a8, a1, 0x294
  400c74:	ac6192        	s32i	a9, a1, 0x2b0
  400c77:	094d      	mov.n	a4, a9
  400c79:	a16192        	s32i	a9, a1, 0x284
  400c7c:	000246        	j	400c89 <_vfprintf_r+0x239>
  400c7f:	00          	.byte 00
  400c80:	00          	.byte 00
  400c81:	a96172        	s32i	a7, a1, 0x2a4
  400c84:	040c      	movi.n	a4, 0
  400c86:	a92162        	l32i	a6, a1, 0x2a4
  400c89:	861b      	addi.n	a8, a6, 1
  400c8b:	000662        	l8ui	a6, a6, 0
  400c8e:	a96182        	s32i	a8, a1, 0x2a4
  400c91:	a86162        	s32i	a6, a1, 0x2a0
  400c94:	aa5c      	movi.n	a10, 90
  400c96:	fd1dd1        	l32r	a13, 40010c <_init-0x284>
  400c99:	980c      	movi.n	a8, 9
  400c9b:	492c      	movi.n	a9, 36
  400c9d:	ab2c      	movi.n	a11, 42
  400c9f:	000106        	j	400ca7 <_vfprintf_r+0x257>
  400ca2:	00          	.byte 00
  400ca3:	00          	.byte 00
  400ca4:	ac6162        	s32i	a6, a1, 0x2b0
  400ca7:	a821c2        	l32i	a12, a1, 0x2a0
  400caa:	e0cc62        	addi	a6, a12, -32
  400cad:	02ba67        	bgeu	a10, a6, 400cb3 <_vfprintf_r+0x263>
  400cb0:	082e46        	j	402d6d <_vfprintf_r+0x231d>
  400cb3:	1166e0        	slli	a6, a6, 2
  400cb6:	6d6a      	add.n	a6, a13, a6
  400cb8:	0668      	l32i.n	a6, a6, 0
  400cba:	0006a0        	jx	a6
  400cbd:	a421a2        	l32i	a10, a1, 0x290
  400cc0:	067425        	call8	407404 <_localeconv_r>
  400cc3:	012aa2        	l32i	a10, a10, 4
  400cc6:	b561a2        	s32i	a10, a1, 0x2d4
  400cc9:	077365        	call8	408400 <strlen>
  400ccc:	b161a2        	s32i	a10, a1, 0x2c4
  400ccf:	a421a2        	l32i	a10, a1, 0x290
  400cd2:	067325        	call8	407404 <_localeconv_r>
  400cd5:	2aa8      	l32i.n	a10, a10, 8
  400cd7:	b12162        	l32i	a6, a1, 0x2c4
  400cda:	ad61a2        	s32i	a10, a1, 0x2b4
  400cdd:	fa5616        	beqz	a6, 400c86 <_vfprintf_r+0x236>
  400ce0:	fa2a16        	beqz	a10, 400c86 <_vfprintf_r+0x236>
  400ce3:	000a62        	l8ui	a6, a10, 0
  400ce6:	f9c616        	beqz	a6, 400c86 <_vfprintf_r+0x236>
  400ce9:	00a462        	movi	a6, 0x400
  400cec:	00b486        	j	400fc2 <_vfprintf_r+0x572>
  400cef:	02d562        	addmi	a6, a5, 0x200
  400cf2:	560672        	l8ui	a7, a6, 86
  400cf5:	f8d756        	bnez	a7, 400c86 <_vfprintf_r+0x236>
  400cf8:	072c      	movi.n	a7, 32
  400cfa:	0042c6        	j	400e09 <_vfprintf_r+0x3b9>
  400cfd:	160c      	movi.n	a6, 1
  400cff:	00b3c6        	j	400fd2 <_vfprintf_r+0x582>
  400d02:	a92162        	l32i	a6, a1, 0x2a4
  400d05:	970c      	movi.n	a7, 9
  400d07:	000682        	l8ui	a8, a6, 0
  400d0a:	d0c862        	addi	a6, a8, -48
  400d0d:	02b767        	bgeu	a7, a6, 400d13 <_vfprintf_r+0x2c3>
  400d10:	0b2546        	j	4039a9 <_vfprintf_r+0x2f59>
  400d13:	a92192        	l32i	a9, a1, 0x2a4
  400d16:	0a0c      	movi.n	a10, 0
  400d18:	691b      	addi.n	a6, a9, 1
  400d1a:	079d      	mov.n	a9, a7
  400d1c:	117ae0        	slli	a7, a10, 2
  400d1f:	a7aa      	add.n	a10, a7, a10
  400d21:	d0c882        	addi	a8, a8, -48
  400d24:	11aaf0        	slli	a10, a10, 1
  400d27:	a8aa      	add.n	a10, a8, a10
  400d29:	000682        	l8ui	a8, a6, 0
  400d2c:	661b      	addi.n	a6, a6, 1
  400d2e:	d0c872        	addi	a7, a8, -48
  400d31:	e7b977        	bgeu	a9, a7, 400d1c <_vfprintf_r+0x2cc>
  400d34:	472c      	movi.n	a7, 36
  400d36:	021877        	beq	a8, a7, 400d3c <_vfprintf_r+0x2ec>
  400d39:	ffd1c6        	j	400c84 <_vfprintf_r+0x234>
  400d3c:	072c      	movi.n	a7, 32
  400d3e:	02a7a7        	bge	a7, a10, 400d44 <_vfprintf_r+0x2f4>
  400d41:	0b0a06        	j	40396d <_vfprintf_r+0x2f1d>
  400d44:	982172        	l32i	a7, a1, 0x260
  400d47:	aa0b      	addi.n	a10, a10, -1
  400d49:	08aa77        	bge	a10, a7, 400d55 <_vfprintf_r+0x305>
  400d4c:	11aad0        	slli	a10, a10, 3
  400d4f:	a5aa      	add.n	a10, a5, a10
  400d51:	0006c6        	j	400d70 <_vfprintf_r+0x320>
  400d54:	00          	.byte 00
  400d55:	4ca272        	movi	a7, 0x24c
  400d58:	757a      	add.n	a7, a5, a7
  400d5a:	60a2d2        	movi	a13, 0x260
  400d5d:	60a2c2        	movi	a12, 0x260
  400d60:	0179      	s32i.n	a7, a1, 0
  400d62:	01d5f2        	addmi	a15, a5, 0x100
  400d65:	05ed      	mov.n	a14, a5
  400d67:	dd1a      	add.n	a13, a13, a1
  400d69:	c5ca      	add.n	a12, a5, a12
  400d6b:	03bd      	mov.n	a11, a3
  400d6d:	ff8225        	call8	400590 <get_arg$isra$0>
  400d70:	0aa8      	l32i.n	a10, a10, 0
  400d72:	a96162        	s32i	a6, a1, 0x2a4
  400d75:	ac61a2        	s32i	a10, a1, 0x2b0
  400d78:	9f21a2        	l32i	a10, a1, 0x27c
  400d7b:	001c46        	j	400df0 <_vfprintf_r+0x3a0>
  400d7e:	00          	.byte 00
  400d7f:	00          	.byte 00
  400d80:	1162d0        	slli	a6, a2, 3
  400d83:	656a      	add.n	a6, a5, a6
  400d85:	001886        	j	400deb <_vfprintf_r+0x39b>
  400d88:	02d572        	addmi	a7, a5, 0x200
  400d8b:	1a27b2        	l32i	a11, a7, 104
  400d8e:	fc1c      	movi.n	a12, 31
  400d90:	9b4b      	addi.n	a9, a11, 4
  400d92:	881c      	movi.n	a8, 24
  400d94:	342c67        	blt	a12, a6, 400dcc <_vfprintf_r+0x37c>
  400d97:	c61b      	addi.n	a12, a6, 1
  400d99:	9861c2        	s32i	a12, a1, 0x260
  400d9c:	1a6792        	s32i	a9, a7, 104
  400d9f:	052897        	blt	a8, a9, 400da8 <_vfprintf_r+0x358>
  400da2:	192772        	l32i	a7, a7, 100
  400da5:	000286        	j	400db3 <_vfprintf_r+0x363>
  400da8:	0428b7        	blt	a8, a11, 400db0 <_vfprintf_r+0x360>
  400dab:	482c      	movi.n	a8, 36
  400dad:	1a6782        	s32i	a8, a7, 104
  400db0:	982572        	l32i	a7, a5, 0x260
  400db3:	9a2582        	l32i	a8, a5, 0x268
  400db6:	1166d0        	slli	a6, a6, 3
  400db9:	778a      	add.n	a7, a7, a8
  400dbb:	fcc772        	addi	a7, a7, -4
  400dbe:	0788      	l32i.n	a8, a7, 0
  400dc0:	656a      	add.n	a6, a5, a6
  400dc2:	ac6182        	s32i	a8, a1, 0x2b0
  400dc5:	0689      	s32i.n	a8, a6, 0
  400dc7:	000946        	j	400df0 <_vfprintf_r+0x3a0>
  400dca:	00          	.byte 00
  400dcb:	00          	.byte 00
  400dcc:	1a6792        	s32i	a9, a7, 104
  400dcf:	052897        	blt	a8, a9, 400dd8 <_vfprintf_r+0x388>
  400dd2:	192762        	l32i	a6, a7, 100
  400dd5:	000286        	j	400de3 <_vfprintf_r+0x393>
  400dd8:	0428b7        	blt	a8, a11, 400de0 <_vfprintf_r+0x390>
  400ddb:	462c      	movi.n	a6, 36
  400ddd:	1a6762        	s32i	a6, a7, 104
  400de0:	982562        	l32i	a6, a5, 0x260
  400de3:	9a2572        	l32i	a7, a5, 0x268
  400de6:	667a      	add.n	a6, a6, a7
  400de8:	fcc662        	addi	a6, a6, -4
  400deb:	0668      	l32i.n	a6, a6, 0
  400ded:	ac6162        	s32i	a6, a1, 0x2b0
  400df0:	ac2192        	l32i	a9, a1, 0x2b0
  400df3:	9f61a2        	s32i	a10, a1, 0x27c
  400df6:	e8c9d6        	bgez	a9, 400c86 <_vfprintf_r+0x236>
  400df9:	609090        	neg	a9, a9
  400dfc:	ac6192        	s32i	a9, a1, 0x2b0
  400dff:	460c      	movi.n	a6, 4
  400e01:	006f46        	j	400fc2 <_vfprintf_r+0x572>
  400e04:	02d562        	addmi	a6, a5, 0x200
  400e07:	b72c      	movi.n	a7, 43
  400e09:	564672        	s8i	a7, a6, 86
  400e0c:	ff9d86        	j	400c86 <_vfprintf_r+0x236>
  400e0f:	a92162        	l32i	a6, a1, 0x2a4
  400e12:	761b      	addi.n	a7, a6, 1
  400e14:	000662        	l8ui	a6, a6, 0
  400e17:	a86162        	s32i	a6, a1, 0x2a0
  400e1a:	0716b7        	beq	a6, a11, 400e25 <_vfprintf_r+0x3d5>
  400e1d:	060c      	movi.n	a6, 0
  400e1f:	a56162        	s32i	a6, a1, 0x294
  400e22:	004286        	j	400f30 <_vfprintf_r+0x4e0>
  400e25:	a92192        	l32i	a9, a1, 0x2a4
  400e28:	010982        	l8ui	a8, a9, 1
  400e2b:	990c      	movi.n	a9, 9
  400e2d:	d0c862        	addi	a6, a8, -48
  400e30:	02b967        	bgeu	a9, a6, 400e36 <_vfprintf_r+0x3e6>
  400e33:	0ae186        	j	4039bd <_vfprintf_r+0x2f6d>
  400e36:	a921a2        	l32i	a10, a1, 0x2a4
  400e39:	6a2b      	addi.n	a6, a10, 2
  400e3b:	0a0c      	movi.n	a10, 0
  400e3d:	11bae0        	slli	a11, a10, 2
  400e40:	abaa      	add.n	a10, a11, a10
  400e42:	d0c882        	addi	a8, a8, -48
  400e45:	11aaf0        	slli	a10, a10, 1
  400e48:	a8aa      	add.n	a10, a8, a10
  400e4a:	000682        	l8ui	a8, a6, 0
  400e4d:	661b      	addi.n	a6, a6, 1
  400e4f:	d0c8b2        	addi	a11, a8, -48
  400e52:	e7b9b7        	bgeu	a9, a11, 400e3d <_vfprintf_r+0x3ed>
  400e55:	492c      	movi.n	a9, 36
  400e57:	021897        	beq	a8, a9, 400e5d <_vfprintf_r+0x40d>
  400e5a:	ff88c6        	j	400c81 <_vfprintf_r+0x231>
  400e5d:	072c      	movi.n	a7, 32
  400e5f:	02a7a7        	bge	a7, a10, 400e65 <_vfprintf_r+0x415>
  400e62:	0ac1c6        	j	40396d <_vfprintf_r+0x2f1d>
  400e65:	982172        	l32i	a7, a1, 0x260
  400e68:	aa0b      	addi.n	a10, a10, -1
  400e6a:	07aa77        	bge	a10, a7, 400e75 <_vfprintf_r+0x425>
  400e6d:	11aad0        	slli	a10, a10, 3
  400e70:	a5aa      	add.n	a10, a5, a10
  400e72:	000686        	j	400e90 <_vfprintf_r+0x440>
  400e75:	4ca272        	movi	a7, 0x24c
  400e78:	757a      	add.n	a7, a5, a7
  400e7a:	60a2d2        	movi	a13, 0x260
  400e7d:	60a2c2        	movi	a12, 0x260
  400e80:	0179      	s32i.n	a7, a1, 0
  400e82:	01d5f2        	addmi	a15, a5, 0x100
  400e85:	05ed      	mov.n	a14, a5
  400e87:	dd1a      	add.n	a13, a13, a1
  400e89:	c5ca      	add.n	a12, a5, a12
  400e8b:	03bd      	mov.n	a11, a3
  400e8d:	ff7025        	call8	400590 <get_arg$isra$0>
  400e90:	0a88      	l32i.n	a8, a10, 0
  400e92:	067d      	mov.n	a7, a6
  400e94:	9f21b2        	l32i	a11, a1, 0x27c
  400e97:	001a86        	j	400f05 <_vfprintf_r+0x4b5>
  400e9a:	1162d0        	slli	a6, a2, 3
  400e9d:	656a      	add.n	a6, a5, a6
  400e9f:	001806        	j	400f03 <_vfprintf_r+0x4b3>
  400ea2:	02d582        	addmi	a8, a5, 0x200
  400ea5:	1a28c2        	l32i	a12, a8, 104
  400ea8:	fd1c      	movi.n	a13, 31
  400eaa:	ac4b      	addi.n	a10, a12, 4
  400eac:	891c      	movi.n	a9, 24
  400eae:	322d67        	blt	a13, a6, 400ee4 <_vfprintf_r+0x494>
  400eb1:	d61b      	addi.n	a13, a6, 1
  400eb3:	9861d2        	s32i	a13, a1, 0x260
  400eb6:	1a68a2        	s32i	a10, a8, 104
  400eb9:	0729a7        	blt	a9, a10, 400ec4 <_vfprintf_r+0x474>
  400ebc:	192882        	l32i	a8, a8, 100
  400ebf:	000306        	j	400ecf <_vfprintf_r+0x47f>
  400ec2:	00          	.byte 00
  400ec3:	00          	.byte 00
  400ec4:	0429c7        	blt	a9, a12, 400ecc <_vfprintf_r+0x47c>
  400ec7:	492c      	movi.n	a9, 36
  400ec9:	1a6892        	s32i	a9, a8, 104
  400ecc:	982582        	l32i	a8, a5, 0x260
  400ecf:	9a2592        	l32i	a9, a5, 0x268
  400ed2:	1166d0        	slli	a6, a6, 3
  400ed5:	889a      	add.n	a8, a8, a9
  400ed7:	fcc882        	addi	a8, a8, -4
  400eda:	0888      	l32i.n	a8, a8, 0
  400edc:	656a      	add.n	a6, a5, a6
  400ede:	0689      	s32i.n	a8, a6, 0
  400ee0:	000846        	j	400f05 <_vfprintf_r+0x4b5>
  400ee3:	00          	.byte 00
  400ee4:	1a68a2        	s32i	a10, a8, 104
  400ee7:	0529a7        	blt	a9, a10, 400ef0 <_vfprintf_r+0x4a0>
  400eea:	192862        	l32i	a6, a8, 100
  400eed:	000286        	j	400efb <_vfprintf_r+0x4ab>
  400ef0:	0429c7        	blt	a9, a12, 400ef8 <_vfprintf_r+0x4a8>
  400ef3:	462c      	movi.n	a6, 36
  400ef5:	1a6862        	s32i	a6, a8, 104
  400ef8:	982562        	l32i	a6, a5, 0x260
  400efb:	9a2582        	l32i	a8, a5, 0x268
  400efe:	668a      	add.n	a6, a6, a8
  400f00:	fcc662        	addi	a6, a6, -4
  400f03:	0688      	l32i.n	a8, a6, 0
  400f05:	f67c      	movi.n	a6, -1
  400f07:	536860        	max	a6, a8, a6
  400f0a:	a56162        	s32i	a6, a1, 0x294
  400f0d:	9f61b2        	s32i	a11, a1, 0x27c
  400f10:	a96172        	s32i	a7, a1, 0x2a4
  400f13:	ff5bc6        	j	400c86 <_vfprintf_r+0x236>
  400f16:	00          	.byte 00
  400f17:	00          	.byte 00
  400f18:	a521e2        	l32i	a14, a1, 0x294
  400f1b:	116ee0        	slli	a6, a14, 2
  400f1e:	66ea      	add.n	a6, a6, a14
  400f20:	1166f0        	slli	a6, a6, 1
  400f23:	66ca      	add.n	a6, a6, a12
  400f25:	a56162        	s32i	a6, a1, 0x294
  400f28:	000762        	l8ui	a6, a7, 0
  400f2b:	771b      	addi.n	a7, a7, 1
  400f2d:	a86162        	s32i	a6, a1, 0x2a0
  400f30:	a82162        	l32i	a6, a1, 0x2a0
  400f33:	a96172        	s32i	a7, a1, 0x2a4
  400f36:	d0c6c2        	addi	a12, a6, -48
  400f39:	dbb8c7        	bgeu	a8, a12, 400f18 <_vfprintf_r+0x4c8>
  400f3c:	ac2162        	l32i	a6, a1, 0x2b0
  400f3f:	ff5846        	j	400ca4 <_vfprintf_r+0x254>
  400f42:	80a062        	movi	a6, 128
  400f45:	001e46        	j	400fc2 <_vfprintf_r+0x572>
  400f48:	a92172        	l32i	a7, a1, 0x2a4
  400f4b:	060c      	movi.n	a6, 0
  400f4d:	a821e2        	l32i	a14, a1, 0x2a0
  400f50:	11c6e0        	slli	a12, a6, 2
  400f53:	6c6a      	add.n	a6, a12, a6
  400f55:	1166f0        	slli	a6, a6, 1
  400f58:	d0cec2        	addi	a12, a14, -48
  400f5b:	6c6a      	add.n	a6, a12, a6
  400f5d:	a921c2        	l32i	a12, a1, 0x2a4
  400f60:	0007e2        	l8ui	a14, a7, 0
  400f63:	cc1b      	addi.n	a12, a12, 1
  400f65:	a961c2        	s32i	a12, a1, 0x2a4
  400f68:	0c7d      	mov.n	a7, a12
  400f6a:	a861e2        	s32i	a14, a1, 0x2a0
  400f6d:	d0cec2        	addi	a12, a14, -48
  400f70:	d9b8c7        	bgeu	a8, a12, 400f4d <_vfprintf_r+0x4fd>
  400f73:	021e97        	beq	a14, a9, 400f79 <_vfprintf_r+0x529>
  400f76:	ff4a86        	j	400ca4 <_vfprintf_r+0x254>
  400f79:	022c      	movi.n	a2, 32
  400f7b:	02a267        	bge	a2, a6, 400f81 <_vfprintf_r+0x531>
  400f7e:	0a7ac6        	j	40396d <_vfprintf_r+0x2f1d>
  400f81:	260b      	addi.n	a2, a6, -1
  400f83:	140c      	movi.n	a4, 1
  400f85:	ff3f46        	j	400c86 <_vfprintf_r+0x236>
  400f88:	860c      	movi.n	a6, 8
  400f8a:	000d06        	j	400fc2 <_vfprintf_r+0x572>
  400f8d:	a92192        	l32i	a9, a1, 0x2a4
  400f90:	68a062        	movi	a6, 104
  400f93:	000972        	l8ui	a7, a9, 0
  400f96:	0a9767        	bne	a7, a6, 400fa4 <_vfprintf_r+0x554>
  400f99:	991b      	addi.n	a9, a9, 1
  400f9b:	a96192        	s32i	a9, a1, 0x2a4
  400f9e:	00a262        	movi	a6, 0x200
  400fa1:	000746        	j	400fc2 <_vfprintf_r+0x572>
  400fa4:	064c      	movi.n	a6, 64
  400fa6:	000a06        	j	400fd2 <_vfprintf_r+0x582>
  400fa9:	a92162        	l32i	a6, a1, 0x2a4
  400fac:	000672        	l8ui	a7, a6, 0
  400faf:	6ca062        	movi	a6, 108
  400fb2:	0a9767        	bne	a7, a6, 400fc0 <_vfprintf_r+0x570>
  400fb5:	a92182        	l32i	a8, a1, 0x2a4
  400fb8:	881b      	addi.n	a8, a8, 1
  400fba:	a96182        	s32i	a8, a1, 0x2a4
  400fbd:	0003c6        	j	400fd0 <_vfprintf_r+0x580>
  400fc0:	061c      	movi.n	a6, 16
  400fc2:	a12182        	l32i	a8, a1, 0x284
  400fc5:	208860        	or	a8, a8, a6
  400fc8:	a16182        	s32i	a8, a1, 0x284
  400fcb:	ff2dc6        	j	400c86 <_vfprintf_r+0x236>
  400fce:	00          	.byte 00
  400fcf:	00          	.byte 00
  400fd0:	062c      	movi.n	a6, 32
  400fd2:	a12192        	l32i	a9, a1, 0x284
  400fd5:	209960        	or	a9, a9, a6
  400fd8:	a16192        	s32i	a9, a1, 0x284
  400fdb:	ff29c6        	j	400c86 <_vfprintf_r+0x236>
  400fde:	982152        	l32i	a5, a1, 0x260
  400fe1:	84bc      	beqz.n	a4, 40101d <_vfprintf_r+0x5cd>
  400fe3:	0da257        	bge	a2, a5, 400ff4 <_vfprintf_r+0x5a4>
  400fe6:	1122d0        	slli	a2, a2, 3
  400fe9:	10c1a2        	addi	a10, a1, 16
  400fec:	2a2a      	add.n	a2, a10, a2
  400fee:	000222        	l8ui	a2, a2, 0
  400ff1:	000886        	j	401017 <_vfprintf_r+0x5c7>
  400ff4:	10c1c2        	addi	a12, a1, 16
  400ff7:	5ca2b2        	movi	a11, 0x25c
  400ffa:	50a2d2        	movi	a13, 0x250
  400ffd:	0ced      	mov.n	a14, a12
  400fff:	41ba      	add.n	a4, a1, a11
  401001:	01dcf2        	addmi	a15, a12, 0x100
  401004:	dcda      	add.n	a13, a12, a13
  401006:	60a2c2        	movi	a12, 0x260
  401009:	02ad      	mov.n	a10, a2
  40100b:	0149      	s32i.n	a4, a1, 0
  40100d:	ceca      	add.n	a12, a14, a12
  40100f:	03bd      	mov.n	a11, a3
  401011:	ff57e5        	call8	400590 <get_arg$isra$0>
  401014:	000a22        	l8ui	a2, a10, 0
  401017:	9f2162        	l32i	a6, a1, 0x27c
  40101a:	001f46        	j	40109b <_vfprintf_r+0x64b>
  40101d:	9f2132        	l32i	a3, a1, 0x27c
  401020:	631b      	addi.n	a6, a3, 1
  401022:	0aa357        	bge	a3, a5, 401030 <_vfprintf_r+0x5e0>
  401025:	1122d0        	slli	a2, a2, 3
  401028:	10c142        	addi	a4, a1, 16
  40102b:	242a      	add.n	a2, a4, a2
  40102d:	0019c6        	j	401098 <_vfprintf_r+0x648>
  401030:	10c182        	addi	a8, a1, 16
  401033:	02d822        	addmi	a2, a8, 0x200
  401036:	1a2272        	l32i	a7, a2, 104
  401039:	f81c      	movi.n	a8, 31
  40103b:	474b      	addi.n	a4, a7, 4
  40103d:	831c      	movi.n	a3, 24
  40103f:	362857        	blt	a8, a5, 401079 <_vfprintf_r+0x629>
  401042:	851b      	addi.n	a8, a5, 1
  401044:	986182        	s32i	a8, a1, 0x260
  401047:	1a6242        	s32i	a4, a2, 104
  40104a:	062347        	blt	a3, a4, 401054 <_vfprintf_r+0x604>
  40104d:	192222        	l32i	a2, a2, 100
  401050:	0002c6        	j	40105f <_vfprintf_r+0x60f>
  401053:	00          	.byte 00
  401054:	042377        	blt	a3, a7, 40105c <_vfprintf_r+0x60c>
  401057:	432c      	movi.n	a3, 36
  401059:	1a6232        	s32i	a3, a2, 104
  40105c:	9c2122        	l32i	a2, a1, 0x270
  40105f:	9e2132        	l32i	a3, a1, 0x278
  401062:	1155d0        	slli	a5, a5, 3
  401065:	223a      	add.n	a2, a2, a3
  401067:	fcc222        	addi	a2, a2, -4
  40106a:	0228      	l32i.n	a2, a2, 0
  40106c:	10c192        	addi	a9, a1, 16
  40106f:	595a      	add.n	a5, a9, a5
  401071:	0529      	s32i.n	a2, a5, 0
  401073:	742020        	extui	a2, a2, 0, 8
  401076:	000846        	j	40109b <_vfprintf_r+0x64b>
  401079:	1a6242        	s32i	a4, a2, 104
  40107c:	052347        	blt	a3, a4, 401085 <_vfprintf_r+0x635>
  40107f:	192222        	l32i	a2, a2, 100
  401082:	000286        	j	401090 <_vfprintf_r+0x640>
  401085:	042377        	blt	a3, a7, 40108d <_vfprintf_r+0x63d>
  401088:	432c      	movi.n	a3, 36
  40108a:	1a6232        	s32i	a3, a2, 104
  40108d:	9c2122        	l32i	a2, a1, 0x270
  401090:	9e2132        	l32i	a3, a1, 0x278
  401093:	223a      	add.n	a2, a2, a3
  401095:	fcc222        	addi	a2, a2, -4
  401098:	000222        	l8ui	a2, a2, 0
  40109b:	10c1a2        	addi	a10, a1, 16
  40109e:	01da32        	addmi	a3, a10, 0x100
  4010a1:	804322        	s8i	a2, a3, 128
  4010a4:	02da22        	addmi	a2, a10, 0x200
  4010a7:	030c      	movi.n	a3, 0
  4010a9:	564232        	s8i	a3, a2, 86
  4010ac:	020c      	movi.n	a2, 0
  4010ae:	130c      	movi.n	a3, 1
  4010b0:	9f6162        	s32i	a6, a1, 0x27c
  4010b3:	a56132        	s32i	a3, a1, 0x294
  4010b6:	a66122        	s32i	a2, a1, 0x298
  4010b9:	026d      	mov.n	a6, a2
  4010bb:	023d      	mov.n	a3, a2
  4010bd:	025d      	mov.n	a5, a2
  4010bf:	0734c6        	j	402d96 <_vfprintf_r+0x2346>
  4010c2:	a12192        	l32i	a9, a1, 0x284
  4010c5:	051c      	movi.n	a5, 16
  4010c7:	209950        	or	a9, a9, a5
  4010ca:	a16192        	s32i	a9, a1, 0x284
  4010cd:	a12152        	l32i	a5, a1, 0x284
  4010d0:	982172        	l32i	a7, a1, 0x260
  4010d3:	02e557        	bbsi	a5, 5, 4010d9 <_vfprintf_r+0x689>
  4010d6:	003386        	j	4011a8 <_vfprintf_r+0x758>
  4010d9:	b4bc      	beqz.n	a4, 401118 <_vfprintf_r+0x6c8>
  4010db:	0ea277        	bge	a2, a7, 4010ed <_vfprintf_r+0x69d>
  4010de:	10c162        	addi	a6, a1, 16
  4010e1:	1122d0        	slli	a2, a2, 3
  4010e4:	262a      	add.n	a2, a6, a2
  4010e6:	0258      	l32i.n	a5, a2, 0
  4010e8:	1268      	l32i.n	a6, a2, 4
  4010ea:	0008c6        	j	401111 <_vfprintf_r+0x6c1>
  4010ed:	5ca282        	movi	a8, 0x25c
  4010f0:	10c192        	addi	a9, a1, 16
  4010f3:	418a      	add.n	a4, a1, a8
  4010f5:	50a2d2        	movi	a13, 0x250
  4010f8:	60a2c2        	movi	a12, 0x260
  4010fb:	0149      	s32i.n	a4, a1, 0
  4010fd:	01d9f2        	addmi	a15, a9, 0x100
  401100:	09ed      	mov.n	a14, a9
  401102:	d9da      	add.n	a13, a9, a13
  401104:	c9ca      	add.n	a12, a9, a12
  401106:	03bd      	mov.n	a11, a3
  401108:	02ad      	mov.n	a10, a2
  40110a:	ff4865        	call8	400590 <get_arg$isra$0>
  40110d:	0a58      	l32i.n	a5, a10, 0
  40110f:	1a68      	l32i.n	a6, a10, 4
  401111:	9f2142        	l32i	a4, a1, 0x27c
  401114:	00c206        	j	401420 <_vfprintf_r+0x9d0>
  401117:	00          	.byte 00
  401118:	9f2132        	l32i	a3, a1, 0x27c
  40111b:	431b      	addi.n	a4, a3, 1
  40111d:	0ba377        	bge	a3, a7, 40112c <_vfprintf_r+0x6dc>
  401120:	1122d0        	slli	a2, a2, 3
  401123:	10c152        	addi	a5, a1, 16
  401126:	252a      	add.n	a2, a5, a2
  401128:	001cc6        	j	40119f <_vfprintf_r+0x74f>
  40112b:	00          	.byte 00
  40112c:	10c162        	addi	a6, a1, 16
  40112f:	02d622        	addmi	a2, a6, 0x200
  401132:	1a2232        	l32i	a3, a2, 104
  401135:	857c      	movi.n	a5, -8
  401137:	337b      	addi.n	a3, a3, 7
  401139:	103350        	and	a3, a3, a5
  40113c:	f81c      	movi.n	a8, 31
  40113e:	638b      	addi.n	a6, a3, 8
  401140:	851c      	movi.n	a5, 24
  401142:	3a2877        	blt	a8, a7, 401180 <_vfprintf_r+0x730>
  401145:	871b      	addi.n	a8, a7, 1
  401147:	986182        	s32i	a8, a1, 0x260
  40114a:	1a6262        	s32i	a6, a2, 104
  40114d:	072567        	blt	a5, a6, 401158 <_vfprintf_r+0x708>
  401150:	192222        	l32i	a2, a2, 100
  401153:	000306        	j	401163 <_vfprintf_r+0x713>
  401156:	00          	.byte 00
  401157:	00          	.byte 00
  401158:	042537        	blt	a5, a3, 401160 <_vfprintf_r+0x710>
  40115b:	832c      	movi.n	a3, 40
  40115d:	1a6232        	s32i	a3, a2, 104
  401160:	9c2122        	l32i	a2, a1, 0x270
  401163:	9e2132        	l32i	a3, a1, 0x278
  401166:	1177d0        	slli	a7, a7, 3
  401169:	223a      	add.n	a2, a2, a3
  40116b:	f8c222        	addi	a2, a2, -8
  40116e:	0258      	l32i.n	a5, a2, 0
  401170:	1268      	l32i.n	a6, a2, 4
  401172:	10c182        	addi	a8, a1, 16
  401175:	787a      	add.n	a7, a8, a7
  401177:	0759      	s32i.n	a5, a7, 0
  401179:	1769      	s32i.n	a6, a7, 4
  40117b:	00a846        	j	401420 <_vfprintf_r+0x9d0>
  40117e:	00          	.byte 00
  40117f:	00          	.byte 00
  401180:	1a6262        	s32i	a6, a2, 104
  401183:	052567        	blt	a5, a6, 40118c <_vfprintf_r+0x73c>
  401186:	192222        	l32i	a2, a2, 100
  401189:	000286        	j	401197 <_vfprintf_r+0x747>
  40118c:	042537        	blt	a5, a3, 401194 <_vfprintf_r+0x744>
  40118f:	832c      	movi.n	a3, 40
  401191:	1a6232        	s32i	a3, a2, 104
  401194:	9c2122        	l32i	a2, a1, 0x270
  401197:	9e2132        	l32i	a3, a1, 0x278
  40119a:	223a      	add.n	a2, a2, a3
  40119c:	f8c222        	addi	a2, a2, -8
  40119f:	0258      	l32i.n	a5, a2, 0
  4011a1:	1268      	l32i.n	a6, a2, 4
  4011a3:	009e46        	j	401420 <_vfprintf_r+0x9d0>
  4011a6:	00          	.byte 00
  4011a7:	00          	.byte 00
  4011a8:	a12192        	l32i	a9, a1, 0x284
  4011ab:	266947        	bbci	a9, 4, 4011d5 <_vfprintf_r+0x785>
  4011ae:	1ee416        	beqz	a4, 4013a0 <_vfprintf_r+0x950>
  4011b1:	0ba277        	bge	a2, a7, 4011c0 <_vfprintf_r+0x770>
  4011b4:	1122d0        	slli	a2, a2, 3
  4011b7:	10c1a2        	addi	a10, a1, 16
  4011ba:	2a2a      	add.n	a2, a10, a2
  4011bc:	006c86        	j	401372 <_vfprintf_r+0x922>
  4011bf:	00          	.byte 00
  4011c0:	5ca2b2        	movi	a11, 0x25c
  4011c3:	10c1c2        	addi	a12, a1, 16
  4011c6:	41ba      	add.n	a4, a1, a11
  4011c8:	0149      	s32i.n	a4, a1, 0
  4011ca:	01dcf2        	addmi	a15, a12, 0x100
  4011cd:	50a2d2        	movi	a13, 0x250
  4011d0:	0ced      	mov.n	a14, a12
  4011d2:	006d06        	j	40138a <_vfprintf_r+0x93a>
  4011d5:	a12192        	l32i	a9, a1, 0x284
  4011d8:	02e967        	bbsi	a9, 6, 4011de <_vfprintf_r+0x78e>
  4011db:	002f46        	j	40129c <_vfprintf_r+0x84c>
  4011de:	64bc      	beqz.n	a4, 401218 <_vfprintf_r+0x7c8>
  4011e0:	0da277        	bge	a2, a7, 4011f1 <_vfprintf_r+0x7a1>
  4011e3:	1122d0        	slli	a2, a2, 3
  4011e6:	10c1a2        	addi	a10, a1, 16
  4011e9:	2a2a      	add.n	a2, a10, a2
  4011eb:	009252        	l16si	a5, a2, 0
  4011ee:	006a06        	j	40139a <_vfprintf_r+0x94a>
  4011f1:	10c1c2        	addi	a12, a1, 16
  4011f4:	5ca2b2        	movi	a11, 0x25c
  4011f7:	50a2d2        	movi	a13, 0x250
  4011fa:	0ced      	mov.n	a14, a12
  4011fc:	41ba      	add.n	a4, a1, a11
  4011fe:	01dcf2        	addmi	a15, a12, 0x100
  401201:	dcda      	add.n	a13, a12, a13
  401203:	60a2c2        	movi	a12, 0x260
  401206:	0149      	s32i.n	a4, a1, 0
  401208:	ceca      	add.n	a12, a14, a12
  40120a:	03bd      	mov.n	a11, a3
  40120c:	02ad      	mov.n	a10, a2
  40120e:	ff3825        	call8	400590 <get_arg$isra$0>
  401211:	009a52        	l16si	a5, a10, 0
  401214:	006086        	j	40139a <_vfprintf_r+0x94a>
  401217:	00          	.byte 00
  401218:	9f2132        	l32i	a3, a1, 0x27c
  40121b:	431b      	addi.n	a4, a3, 1
  40121d:	0aa377        	bge	a3, a7, 40122b <_vfprintf_r+0x7db>
  401220:	1122d0        	slli	a2, a2, 3
  401223:	10c152        	addi	a5, a1, 16
  401226:	252a      	add.n	a2, a5, a2
  401228:	001a06        	j	401294 <_vfprintf_r+0x844>
  40122b:	10c162        	addi	a6, a1, 16
  40122e:	02d622        	addmi	a2, a6, 0x200
  401231:	1a2262        	l32i	a6, a2, 104
  401234:	f81c      	movi.n	a8, 31
  401236:	564b      	addi.n	a5, a6, 4
  401238:	831c      	movi.n	a3, 24
  40123a:	372877        	blt	a8, a7, 401275 <_vfprintf_r+0x825>
  40123d:	871b      	addi.n	a8, a7, 1
  40123f:	986182        	s32i	a8, a1, 0x260
  401242:	1a6252        	s32i	a5, a2, 104
  401245:	072357        	blt	a3, a5, 401250 <_vfprintf_r+0x800>
  401248:	192222        	l32i	a2, a2, 100
  40124b:	000306        	j	40125b <_vfprintf_r+0x80b>
  40124e:	00          	.byte 00
  40124f:	00          	.byte 00
  401250:	042367        	blt	a3, a6, 401258 <_vfprintf_r+0x808>
  401253:	432c      	movi.n	a3, 36
  401255:	1a6232        	s32i	a3, a2, 104
  401258:	9c2122        	l32i	a2, a1, 0x270
  40125b:	9e2132        	l32i	a3, a1, 0x278
  40125e:	1177d0        	slli	a7, a7, 3
  401261:	223a      	add.n	a2, a2, a3
  401263:	fcc222        	addi	a2, a2, -4
  401266:	0258      	l32i.n	a5, a2, 0
  401268:	10c182        	addi	a8, a1, 16
  40126b:	787a      	add.n	a7, a8, a7
  40126d:	0759      	s32i.n	a5, a7, 0
  40126f:	235580        	sext	a5, a5, 15
  401272:	0069c6        	j	40141d <_vfprintf_r+0x9cd>
  401275:	1a6252        	s32i	a5, a2, 104
  401278:	052357        	blt	a3, a5, 401281 <_vfprintf_r+0x831>
  40127b:	192222        	l32i	a2, a2, 100
  40127e:	000286        	j	40128c <_vfprintf_r+0x83c>
  401281:	042367        	blt	a3, a6, 401289 <_vfprintf_r+0x839>
  401284:	432c      	movi.n	a3, 36
  401286:	1a6232        	s32i	a3, a2, 104
  401289:	9c2122        	l32i	a2, a1, 0x270
  40128c:	9e2132        	l32i	a3, a1, 0x278
  40128f:	223a      	add.n	a2, a2, a3
  401291:	fcc222        	addi	a2, a2, -4
  401294:	009252        	l16si	a5, a2, 0
  401297:	006086        	j	40141d <_vfprintf_r+0x9cd>
  40129a:	00          	.byte 00
  40129b:	00          	.byte 00
  40129c:	a12192        	l32i	a9, a1, 0x284
  40129f:	02e997        	bbsi	a9, 9, 4012a5 <_vfprintf_r+0x855>
  4012a2:	002fc6        	j	401365 <_vfprintf_r+0x915>
  4012a5:	84bc      	beqz.n	a4, 4012e1 <_vfprintf_r+0x891>
  4012a7:	0da277        	bge	a2, a7, 4012b8 <_vfprintf_r+0x868>
  4012aa:	1122d0        	slli	a2, a2, 3
  4012ad:	10c1a2        	addi	a10, a1, 16
  4012b0:	2a2a      	add.n	a2, a10, a2
  4012b2:	000252        	l8ui	a5, a2, 0
  4012b5:	000886        	j	4012db <_vfprintf_r+0x88b>
  4012b8:	10c1c2        	addi	a12, a1, 16
  4012bb:	5ca2b2        	movi	a11, 0x25c
  4012be:	50a2d2        	movi	a13, 0x250
  4012c1:	0ced      	mov.n	a14, a12
  4012c3:	41ba      	add.n	a4, a1, a11
  4012c5:	01dcf2        	addmi	a15, a12, 0x100
  4012c8:	dcda      	add.n	a13, a12, a13
  4012ca:	60a2c2        	movi	a12, 0x260
  4012cd:	0149      	s32i.n	a4, a1, 0
  4012cf:	ceca      	add.n	a12, a14, a12
  4012d1:	03bd      	mov.n	a11, a3
  4012d3:	02ad      	mov.n	a10, a2
  4012d5:	ff2ba5        	call8	400590 <get_arg$isra$0>
  4012d8:	000a52        	l8ui	a5, a10, 0
  4012db:	9f2142        	l32i	a4, a1, 0x27c
  4012de:	001f46        	j	40135f <_vfprintf_r+0x90f>
  4012e1:	9f2132        	l32i	a3, a1, 0x27c
  4012e4:	431b      	addi.n	a4, a3, 1
  4012e6:	0aa377        	bge	a3, a7, 4012f4 <_vfprintf_r+0x8a4>
  4012e9:	1122d0        	slli	a2, a2, 3
  4012ec:	10c152        	addi	a5, a1, 16
  4012ef:	252a      	add.n	a2, a5, a2
  4012f1:	0019c6        	j	40135c <_vfprintf_r+0x90c>
  4012f4:	10c162        	addi	a6, a1, 16
  4012f7:	02d622        	addmi	a2, a6, 0x200
  4012fa:	1a2262        	l32i	a6, a2, 104
  4012fd:	f81c      	movi.n	a8, 31
  4012ff:	564b      	addi.n	a5, a6, 4
  401301:	831c      	movi.n	a3, 24
  401303:	362877        	blt	a8, a7, 40133d <_vfprintf_r+0x8ed>
  401306:	871b      	addi.n	a8, a7, 1
  401308:	986182        	s32i	a8, a1, 0x260
  40130b:	1a6252        	s32i	a5, a2, 104
  40130e:	062357        	blt	a3, a5, 401318 <_vfprintf_r+0x8c8>
  401311:	192222        	l32i	a2, a2, 100
  401314:	0002c6        	j	401323 <_vfprintf_r+0x8d3>
  401317:	00          	.byte 00
  401318:	042367        	blt	a3, a6, 401320 <_vfprintf_r+0x8d0>
  40131b:	432c      	movi.n	a3, 36
  40131d:	1a6232        	s32i	a3, a2, 104
  401320:	9c2122        	l32i	a2, a1, 0x270
  401323:	9e2132        	l32i	a3, a1, 0x278
  401326:	1177d0        	slli	a7, a7, 3
  401329:	223a      	add.n	a2, a2, a3
  40132b:	fcc222        	addi	a2, a2, -4
  40132e:	0258      	l32i.n	a5, a2, 0
  401330:	10c182        	addi	a8, a1, 16
  401333:	787a      	add.n	a7, a8, a7
  401335:	0759      	s32i.n	a5, a7, 0
  401337:	745050        	extui	a5, a5, 0, 8
  40133a:	000846        	j	40135f <_vfprintf_r+0x90f>
  40133d:	1a6252        	s32i	a5, a2, 104
  401340:	052357        	blt	a3, a5, 401349 <_vfprintf_r+0x8f9>
  401343:	192222        	l32i	a2, a2, 100
  401346:	000286        	j	401354 <_vfprintf_r+0x904>
  401349:	042367        	blt	a3, a6, 401351 <_vfprintf_r+0x901>
  40134c:	432c      	movi.n	a3, 36
  40134e:	1a6232        	s32i	a3, a2, 104
  401351:	9c2122        	l32i	a2, a1, 0x270
  401354:	9e2132        	l32i	a3, a1, 0x278
  401357:	223a      	add.n	a2, a2, a3
  401359:	fcc222        	addi	a2, a2, -4
  40135c:	000252        	l8ui	a5, a2, 0
  40135f:	235500        	sext	a5, a5, 7
  401362:	002dc6        	j	40141d <_vfprintf_r+0x9cd>
  401365:	74bc      	beqz.n	a4, 4013a0 <_vfprintf_r+0x950>
  401367:	0da277        	bge	a2, a7, 401378 <_vfprintf_r+0x928>
  40136a:	1122d0        	slli	a2, a2, 3
  40136d:	10c192        	addi	a9, a1, 16
  401370:	292a      	add.n	a2, a9, a2
  401372:	0258      	l32i.n	a5, a2, 0
  401374:	000886        	j	40139a <_vfprintf_r+0x94a>
  401377:	00          	.byte 00
  401378:	5ca2a2        	movi	a10, 0x25c
  40137b:	10c1b2        	addi	a11, a1, 16
  40137e:	41aa      	add.n	a4, a1, a10
  401380:	0149      	s32i.n	a4, a1, 0
  401382:	01dbf2        	addmi	a15, a11, 0x100
  401385:	50a2d2        	movi	a13, 0x250
  401388:	0bed      	mov.n	a14, a11
  40138a:	60a2c2        	movi	a12, 0x260
  40138d:	deda      	add.n	a13, a14, a13
  40138f:	ceca      	add.n	a12, a14, a12
  401391:	03bd      	mov.n	a11, a3
  401393:	02ad      	mov.n	a10, a2
  401395:	ff1fa5        	call8	400590 <get_arg$isra$0>
  401398:	0a58      	l32i.n	a5, a10, 0
  40139a:	9f2142        	l32i	a4, a1, 0x27c
  40139d:	001f06        	j	40141d <_vfprintf_r+0x9cd>
  4013a0:	9f2132        	l32i	a3, a1, 0x27c
  4013a3:	431b      	addi.n	a4, a3, 1
  4013a5:	0ba377        	bge	a3, a7, 4013b4 <_vfprintf_r+0x964>
  4013a8:	1122d0        	slli	a2, a2, 3
  4013ab:	10c152        	addi	a5, a1, 16
  4013ae:	252a      	add.n	a2, a5, a2
  4013b0:	0019c6        	j	40141b <_vfprintf_r+0x9cb>
  4013b3:	00          	.byte 00
  4013b4:	10c162        	addi	a6, a1, 16
  4013b7:	02d622        	addmi	a2, a6, 0x200
  4013ba:	1a2262        	l32i	a6, a2, 104
  4013bd:	f81c      	movi.n	a8, 31
  4013bf:	564b      	addi.n	a5, a6, 4
  4013c1:	831c      	movi.n	a3, 24
  4013c3:	352877        	blt	a8, a7, 4013fc <_vfprintf_r+0x9ac>
  4013c6:	871b      	addi.n	a8, a7, 1
  4013c8:	986182        	s32i	a8, a1, 0x260
  4013cb:	1a6252        	s32i	a5, a2, 104
  4013ce:	062357        	blt	a3, a5, 4013d8 <_vfprintf_r+0x988>
  4013d1:	192222        	l32i	a2, a2, 100
  4013d4:	0002c6        	j	4013e3 <_vfprintf_r+0x993>
  4013d7:	00          	.byte 00
  4013d8:	042367        	blt	a3, a6, 4013e0 <_vfprintf_r+0x990>
  4013db:	432c      	movi.n	a3, 36
  4013dd:	1a6232        	s32i	a3, a2, 104
  4013e0:	9c2122        	l32i	a2, a1, 0x270
  4013e3:	9e2132        	l32i	a3, a1, 0x278
  4013e6:	1177d0        	slli	a7, a7, 3
  4013e9:	223a      	add.n	a2, a2, a3
  4013eb:	fcc222        	addi	a2, a2, -4
  4013ee:	0258      	l32i.n	a5, a2, 0
  4013f0:	10c182        	addi	a8, a1, 16
  4013f3:	787a      	add.n	a7, a8, a7
  4013f5:	0759      	s32i.n	a5, a7, 0
  4013f7:	000886        	j	40141d <_vfprintf_r+0x9cd>
  4013fa:	00          	.byte 00
  4013fb:	00          	.byte 00
  4013fc:	1a6252        	s32i	a5, a2, 104
  4013ff:	052357        	blt	a3, a5, 401408 <_vfprintf_r+0x9b8>
  401402:	192222        	l32i	a2, a2, 100
  401405:	000286        	j	401413 <_vfprintf_r+0x9c3>
  401408:	042367        	blt	a3, a6, 401410 <_vfprintf_r+0x9c0>
  40140b:	432c      	movi.n	a3, 36
  40140d:	1a6232        	s32i	a3, a2, 104
  401410:	9c2122        	l32i	a2, a1, 0x270
  401413:	9e2132        	l32i	a3, a1, 0x278
  401416:	223a      	add.n	a2, a2, a3
  401418:	fcc222        	addi	a2, a2, -4
  40141b:	0258      	l32i.n	a5, a2, 0
  40141d:	316f50        	srai	a6, a5, 31
  401420:	9f6142        	s32i	a4, a1, 0x27c
  401423:	170c      	movi.n	a7, 1
  401425:	002696        	bltz	a6, 40142b <_vfprintf_r+0x9db>
  401428:	05d906        	j	402b90 <_vfprintf_r+0x2140>
  40142b:	605050        	neg	a5, a5
  40142e:	020c      	movi.n	a2, 0
  401430:	932750        	movnez	a2, a7, a5
  401433:	606060        	neg	a6, a6
  401436:	10c192        	addi	a9, a1, 16
  401439:	c06620        	sub	a6, a6, a2
  40143c:	d32c      	movi.n	a3, 45
  40143e:	02d922        	addmi	a2, a9, 0x200
  401441:	564232        	s8i	a3, a2, 86
  401444:	05d206        	j	402b90 <_vfprintf_r+0x2140>
  401447:	00          	.byte 00
  401448:	00          	.byte 00
  401449:	a12162        	l32i	a6, a1, 0x284
  40144c:	982152        	l32i	a5, a1, 0x260
  40144f:	5e6637        	bbci	a6, 3, 4014b1 <_vfprintf_r+0xa61>
  401452:	e4bc      	beqz.n	a4, 401494 <_vfprintf_r+0xa44>
  401454:	14a257        	bge	a2, a5, 40146c <_vfprintf_r+0xa1c>
  401457:	1122d0        	slli	a2, a2, 3
  40145a:	10c182        	addi	a8, a1, 16
  40145d:	282a      	add.n	a2, a8, a2
  40145f:	0248      	l32i.n	a4, a2, 0
  401461:	1258      	l32i.n	a5, a2, 4
  401463:	aa6142        	s32i	a4, a1, 0x2a8
  401466:	ab6152        	s32i	a5, a1, 0x2ac
  401469:	004e06        	j	4015a5 <_vfprintf_r+0xb55>
  40146c:	5ca252        	movi	a5, 0x25c
  40146f:	10c162        	addi	a6, a1, 16
  401472:	415a      	add.n	a4, a1, a5
  401474:	50a2d2        	movi	a13, 0x250
  401477:	60a2c2        	movi	a12, 0x260
  40147a:	0149      	s32i.n	a4, a1, 0
  40147c:	01d6f2        	addmi	a15, a6, 0x100
  40147f:	06ed      	mov.n	a14, a6
  401481:	d6da      	add.n	a13, a6, a13
  401483:	c6ca      	add.n	a12, a6, a12
  401485:	03bd      	mov.n	a11, a3
  401487:	02ad      	mov.n	a10, a2
  401489:	ff1065        	call8	400590 <get_arg$isra$0>
  40148c:	0a88      	l32i.n	a8, a10, 0
  40148e:	1a98      	l32i.n	a9, a10, 4
  401490:	000bc6        	j	4014c3 <_vfprintf_r+0xa73>
  401493:	00          	.byte 00
  401494:	9f2192        	l32i	a9, a1, 0x27c
  401497:	791b      	addi.n	a7, a9, 1
  401499:	0ba957        	bge	a9, a5, 4014a8 <_vfprintf_r+0xa58>
  40149c:	1122d0        	slli	a2, a2, 3
  40149f:	10c1a2        	addi	a10, a1, 16
  4014a2:	2a2a      	add.n	a2, a10, a2
  4014a4:	003c06        	j	401598 <_vfprintf_r+0xb48>
  4014a7:	00          	.byte 00
  4014a8:	10c162        	addi	a6, a1, 16
  4014ab:	02d622        	addmi	a2, a6, 0x200
  4014ae:	001b06        	j	40151e <_vfprintf_r+0xace>
  4014b1:	044416        	beqz	a4, 4014f9 <_vfprintf_r+0xaa9>
  4014b4:	14a257        	bge	a2, a5, 4014cc <_vfprintf_r+0xa7c>
  4014b7:	1122d0        	slli	a2, a2, 3
  4014ba:	10c152        	addi	a5, a1, 16
  4014bd:	252a      	add.n	a2, a5, a2
  4014bf:	0288      	l32i.n	a8, a2, 0
  4014c1:	1298      	l32i.n	a9, a2, 4
  4014c3:	aa6182        	s32i	a8, a1, 0x2a8
  4014c6:	ab6192        	s32i	a9, a1, 0x2ac
  4014c9:	003606        	j	4015a5 <_vfprintf_r+0xb55>
  4014cc:	5ca292        	movi	a9, 0x25c
  4014cf:	10c1a2        	addi	a10, a1, 16
  4014d2:	419a      	add.n	a4, a1, a9
  4014d4:	50a2d2        	movi	a13, 0x250
  4014d7:	60a2c2        	movi	a12, 0x260
  4014da:	01daf2        	addmi	a15, a10, 0x100
  4014dd:	0aed      	mov.n	a14, a10
  4014df:	dada      	add.n	a13, a10, a13
  4014e1:	caca      	add.n	a12, a10, a12
  4014e3:	03bd      	mov.n	a11, a3
  4014e5:	02ad      	mov.n	a10, a2
  4014e7:	0149      	s32i.n	a4, a1, 0
  4014e9:	ff0a65        	call8	400590 <get_arg$isra$0>
  4014ec:	0a28      	l32i.n	a2, a10, 0
  4014ee:	1a38      	l32i.n	a3, a10, 4
  4014f0:	aa6122        	s32i	a2, a1, 0x2a8
  4014f3:	ab6132        	s32i	a3, a1, 0x2ac
  4014f6:	002ac6        	j	4015a5 <_vfprintf_r+0xb55>
  4014f9:	9f2132        	l32i	a3, a1, 0x27c
  4014fc:	731b      	addi.n	a7, a3, 1
  4014fe:	16a357        	bge	a3, a5, 401518 <_vfprintf_r+0xac8>
  401501:	1122d0        	slli	a2, a2, 3
  401504:	10c142        	addi	a4, a1, 16
  401507:	242a      	add.n	a2, a4, a2
  401509:	0288      	l32i.n	a8, a2, 0
  40150b:	1298      	l32i.n	a9, a2, 4
  40150d:	aa6182        	s32i	a8, a1, 0x2a8
  401510:	ab6192        	s32i	a9, a1, 0x2ac
  401513:	0022c6        	j	4015a2 <_vfprintf_r+0xb52>
  401516:	00          	.byte 00
  401517:	00          	.byte 00
  401518:	10c192        	addi	a9, a1, 16
  40151b:	02d922        	addmi	a2, a9, 0x200
  40151e:	1a2232        	l32i	a3, a2, 104
  401521:	847c      	movi.n	a4, -8
  401523:	337b      	addi.n	a3, a3, 7
  401525:	103340        	and	a3, a3, a4
  401528:	f81c      	movi.n	a8, 31
  40152a:	638b      	addi.n	a6, a3, 8
  40152c:	841c      	movi.n	a4, 24
  40152e:	462857        	blt	a8, a5, 401578 <_vfprintf_r+0xb28>
  401531:	851b      	addi.n	a8, a5, 1
  401533:	986182        	s32i	a8, a1, 0x260
  401536:	1a6262        	s32i	a6, a2, 104
  401539:	072467        	blt	a4, a6, 401544 <_vfprintf_r+0xaf4>
  40153c:	192222        	l32i	a2, a2, 100
  40153f:	000306        	j	40154f <_vfprintf_r+0xaff>
  401542:	00          	.byte 00
  401543:	00          	.byte 00
  401544:	042437        	blt	a4, a3, 40154c <_vfprintf_r+0xafc>
  401547:	832c      	movi.n	a3, 40
  401549:	1a6232        	s32i	a3, a2, 104
  40154c:	9c2122        	l32i	a2, a1, 0x270
  40154f:	9e2132        	l32i	a3, a1, 0x278
  401552:	1155d0        	slli	a5, a5, 3
  401555:	223a      	add.n	a2, a2, a3
  401557:	f8c222        	addi	a2, a2, -8
  40155a:	1298      	l32i.n	a9, a2, 4
  40155c:	0288      	l32i.n	a8, a2, 0
  40155e:	ab6192        	s32i	a9, a1, 0x2ac
  401561:	aa6182        	s32i	a8, a1, 0x2a8
  401564:	aa2122        	l32i	a2, a1, 0x2a8
  401567:	ab2132        	l32i	a3, a1, 0x2ac
  40156a:	10c192        	addi	a9, a1, 16
  40156d:	595a      	add.n	a5, a9, a5
  40156f:	0529      	s32i.n	a2, a5, 0
  401571:	1539      	s32i.n	a3, a5, 4
  401573:	000ac6        	j	4015a2 <_vfprintf_r+0xb52>
  401576:	00          	.byte 00
  401577:	00          	.byte 00
  401578:	1a6262        	s32i	a6, a2, 104
  40157b:	052467        	blt	a4, a6, 401584 <_vfprintf_r+0xb34>
  40157e:	192222        	l32i	a2, a2, 100
  401581:	000286        	j	40158f <_vfprintf_r+0xb3f>
  401584:	042437        	blt	a4, a3, 40158c <_vfprintf_r+0xb3c>
  401587:	832c      	movi.n	a3, 40
  401589:	1a6232        	s32i	a3, a2, 104
  40158c:	9c2122        	l32i	a2, a1, 0x270
  40158f:	9e2132        	l32i	a3, a1, 0x278
  401592:	802230        	add	a2, a2, a3
  401595:	f8c222        	addi	a2, a2, -8
  401598:	0248      	l32i.n	a4, a2, 0
  40159a:	1258      	l32i.n	a5, a2, 4
  40159c:	aa6142        	s32i	a4, a1, 0x2a8
  40159f:	ab6152        	s32i	a5, a1, 0x2ac
  4015a2:	9f6172        	s32i	a7, a1, 0x27c
  4015a5:	fada41        	l32r	a4, 400110 <_init-0x280>
  4015a8:	ab2162        	l32i	a6, a1, 0x2ac
  4015ab:	aa2152        	l32i	a5, a1, 0x2a8
  4015ae:	fad921        	l32r	a2, 400114 <_init-0x27c>
  4015b1:	fad931        	l32r	a3, 400118 <_init-0x278>
  4015b4:	104640        	and	a4, a6, a4
  4015b7:	02cd      	mov.n	a12, a2
  4015b9:	03dd      	mov.n	a13, a3
  4015bb:	05ad      	mov.n	a10, a5
  4015bd:	04bd      	mov.n	a11, a4
  4015bf:	11c4e5        	call8	41320c <__unorddf2>
  4015c2:	2aec      	bnez.n	a10, 4015e8 <_vfprintf_r+0xb98>
  4015c4:	02cd      	mov.n	a12, a2
  4015c6:	03dd      	mov.n	a13, a3
  4015c8:	05ad      	mov.n	a10, a5
  4015ca:	04bd      	mov.n	a11, a4
  4015cc:	11b4e5        	call8	41311c <__ledf2>
  4015cf:	151aa6        	blti	a10, 1, 4015e8 <_vfprintf_r+0xb98>
  4015d2:	fac2c1        	l32r	a12, 4000dc <_init-0x2b4>
  4015d5:	fac1d1        	l32r	a13, 4000dc <_init-0x2b4>
  4015d8:	aa21a2        	l32i	a10, a1, 0x2a8
  4015db:	ab21b2        	l32i	a11, a1, 0x2ac
  4015de:	11bca5        	call8	4131a8 <__ltdf2>
  4015e1:	024ad6        	bgez	a10, 401609 <_vfprintf_r+0xbb9>
  4015e4:	000586        	j	4015fe <_vfprintf_r+0xbae>
  4015e7:	00          	.byte 00
  4015e8:	aa21c2        	l32i	a12, a1, 0x2a8
  4015eb:	ab21d2        	l32i	a13, a1, 0x2ac
  4015ee:	0cad      	mov.n	a10, a12
  4015f0:	0dbd      	mov.n	a11, a13
  4015f2:	11c1a5        	call8	41320c <__unorddf2>
  4015f5:	084a16        	beqz	a10, 40167d <_vfprintf_r+0xc2d>
  4015f8:	000f06        	j	401638 <_vfprintf_r+0xbe8>
  4015fb:	00          	.byte 00
  4015fc:	00          	.byte 00
  4015fd:	00          	.byte 00
  4015fe:	10c182        	addi	a8, a1, 16
  401601:	02d822        	addmi	a2, a8, 0x200
  401604:	d32c      	movi.n	a3, 45
  401606:	564232        	s8i	a3, a2, 86
  401609:	fab591        	l32r	a9, 4000e0 <_init-0x2b0>
  40160c:	a82132        	l32i	a3, a1, 0x2a0
  40160f:	724c      	movi.n	a2, 71
  401611:	a36192        	s32i	a9, a1, 0x28c
  401614:	05a237        	bge	a2, a3, 40161d <_vfprintf_r+0xbcd>
  401617:	fab341        	l32r	a4, 4000e4 <_init-0x2ac>
  40161a:	a36142        	s32i	a4, a1, 0x28c
  40161d:	a12152        	l32i	a5, a1, 0x284
  401620:	7faf22        	movi	a2, -129
  401623:	105520        	and	a5, a5, a2
  401626:	060c      	movi.n	a6, 0
  401628:	380c      	movi.n	a8, 3
  40162a:	a16152        	s32i	a5, a1, 0x284
  40162d:	a66162        	s32i	a6, a1, 0x298
  401630:	a56182        	s32i	a8, a1, 0x294
  401633:	05dac6        	j	402da2 <_vfprintf_r+0x2352>
  401636:	00          	.byte 00
  401637:	00          	.byte 00
  401638:	fab921        	l32r	a2, 40011c <_init-0x274>
  40163b:	ab2192        	l32i	a9, a1, 0x2ac
  40163e:	0a0297        	bnone	a2, a9, 40164c <_vfprintf_r+0xbfc>
  401641:	10c1a2        	addi	a10, a1, 16
  401644:	02da22        	addmi	a2, a10, 0x200
  401647:	d32c      	movi.n	a3, 45
  401649:	564232        	s8i	a3, a2, 86
  40164c:	faa731        	l32r	a3, 4000e8 <_init-0x2a8>
  40164f:	a82142        	l32i	a4, a1, 0x2a0
  401652:	724c      	movi.n	a2, 71
  401654:	a36132        	s32i	a3, a1, 0x28c
  401657:	05a247        	bge	a2, a4, 401660 <_vfprintf_r+0xc10>
  40165a:	faa481        	l32r	a8, 4000ec <_init-0x2a4>
  40165d:	a36182        	s32i	a8, a1, 0x28c
  401660:	a12192        	l32i	a9, a1, 0x284
  401663:	7faf22        	movi	a2, -129
  401666:	109920        	and	a9, a9, a2
  401669:	330c      	movi.n	a3, 3
  40166b:	020c      	movi.n	a2, 0
  40166d:	a56132        	s32i	a3, a1, 0x294
  401670:	a16192        	s32i	a9, a1, 0x284
  401673:	a66122        	s32i	a2, a1, 0x298
  401676:	026d      	mov.n	a6, a2
  401678:	023d      	mov.n	a3, a2
  40167a:	05ba86        	j	402d68 <_vfprintf_r+0x2318>
  40167d:	a82142        	l32i	a4, a1, 0x2a0
  401680:	dfaf22        	movi	a2, -33
  401683:	107420        	and	a7, a4, a2
  401686:	124c      	movi.n	a2, 65
  401688:	4b9727        	bne	a7, a2, 4016d7 <_vfprintf_r+0xc87>
  40168b:	10c152        	addi	a5, a1, 16
  40168e:	02d532        	addmi	a3, a5, 0x200
  401691:	023c      	movi.n	a2, 48
  401693:	a12162        	l32i	a6, a1, 0x284
  401696:	544322        	s8i	a2, a3, 84
  401699:	78a052        	movi	a5, 120
  40169c:	9fc422        	addi	a2, a4, -97
  40169f:	845c      	movi.n	a4, 88
  4016a1:	834520        	moveqz	a4, a5, a2
  4016a4:	220c      	movi.n	a2, 2
  4016a6:	206620        	or	a6, a6, a2
  4016a9:	a52182        	l32i	a8, a1, 0x294
  4016ac:	554342        	s8i	a4, a3, 85
  4016af:	a16162        	s32i	a6, a1, 0x284
  4016b2:	63a022        	movi	a2, 99
  4016b5:	48a287        	bge	a2, a8, 401701 <_vfprintf_r+0xcb1>
  4016b8:	a421a2        	l32i	a10, a1, 0x290
  4016bb:	b81b      	addi.n	a11, a8, 1
  4016bd:	0683a5        	call8	407ef8 <_malloc_r>
  4016c0:	a361a2        	s32i	a10, a1, 0x28c
  4016c3:	049a56        	bnez	a10, 401710 <_vfprintf_r+0xcc0>
  4016c6:	a22192        	l32i	a9, a1, 0x288
  4016c9:	034c      	movi.n	a3, 64
  4016cb:	061922        	l16ui	a2, a9, 12
  4016ce:	202230        	or	a2, a2, a3
  4016d1:	065922        	s16i	a2, a9, 12
  4016d4:	08a546        	j	40396d <_vfprintf_r+0x2f1d>
  4016d7:	a52122        	l32i	a2, a1, 0x294
  4016da:	3b0226        	beqi	a2, -1, 401719 <_vfprintf_r+0xcc9>
  4016dd:	a52142        	l32i	a4, a1, 0x294
  4016e0:	130c      	movi.n	a3, 1
  4016e2:	0a2d      	mov.n	a2, a10
  4016e4:	832340        	moveqz	a2, a3, a4
  4016e7:	742020        	extui	a2, a2, 0, 8
  4016ea:	b28c      	beqz.n	a2, 4016f9 <_vfprintf_r+0xca9>
  4016ec:	b9c722        	addi	a2, a7, -71
  4016ef:	0a5d      	mov.n	a5, a10
  4016f1:	835320        	moveqz	a5, a3, a2
  4016f4:	742050        	extui	a2, a5, 0, 8
  4016f7:	92ec      	bnez.n	a2, 401724 <_vfprintf_r+0xcd4>
  4016f9:	060c      	movi.n	a6, 0
  4016fb:	a66162        	s32i	a6, a1, 0x298
  4016fe:	000a06        	j	40172a <_vfprintf_r+0xcda>
  401701:	90a182        	movi	a8, 0x190
  401704:	818a      	add.n	a8, a1, a8
  401706:	a661a2        	s32i	a10, a1, 0x298
  401709:	a36182        	s32i	a8, a1, 0x28c
  40170c:	000686        	j	40172a <_vfprintf_r+0xcda>
  40170f:	00          	.byte 00
  401710:	a32192        	l32i	a9, a1, 0x28c
  401713:	a66192        	s32i	a9, a1, 0x298
  401716:	000406        	j	40172a <_vfprintf_r+0xcda>
  401719:	620c      	movi.n	a2, 6
  40171b:	a661a2        	s32i	a10, a1, 0x298
  40171e:	a56122        	s32i	a2, a1, 0x294
  401721:	000146        	j	40172a <_vfprintf_r+0xcda>
  401724:	a661a2        	s32i	a10, a1, 0x298
  401727:	a56132        	s32i	a3, a1, 0x294
  40172a:	a12132        	l32i	a3, a1, 0x284
  40172d:	00a122        	movi	a2, 0x100
  401730:	202320        	or	a2, a3, a2
  401733:	b06122        	s32i	a2, a1, 0x2c0
  401736:	ab2122        	l32i	a2, a1, 0x2ac
  401739:	aa2132        	l32i	a3, a1, 0x2a8
  40173c:	0102d6        	bgez	a2, 401750 <_vfprintf_r+0xd00>
  40173f:	fa7721        	l32r	a2, 40011c <_init-0x274>
  401742:	ab2142        	l32i	a4, a1, 0x2ac
  401745:	d52c      	movi.n	a5, 45
  401747:	302420        	xor	a2, a4, a2
  40174a:	b26152        	s32i	a5, a1, 0x2c8
  40174d:	000146        	j	401756 <_vfprintf_r+0xd06>
  401750:	00a062        	movi	a6, 0
  401753:	b26162        	s32i	a6, a1, 0x2c8
  401756:	144c      	movi.n	a4, 65
  401758:	021747        	beq	a7, a4, 40175e <_vfprintf_r+0xd0e>
  40175b:	0049c6        	j	401886 <_vfprintf_r+0xe36>
  40175e:	58a2c2        	movi	a12, 0x258
  401761:	c1ca      	add.n	a12, a1, a12
  401763:	03ad      	mov.n	a10, a3
  401765:	20b220        	or	a11, a2, a2
  401768:	069c25        	call8	40812c <frexp>
  40176b:	fa5cc1        	l32r	a12, 4000dc <_init-0x2b4>
  40176e:	fa6cd1        	l32r	a13, 400120 <_init-0x270>
  401771:	1161e5        	call8	412d90 <__muldf3>
  401774:	fa5ac1        	l32r	a12, 4000dc <_init-0x2b4>
  401777:	fa59d1        	l32r	a13, 4000dc <_init-0x2b4>
  40177a:	0a2d      	mov.n	a2, a10
  40177c:	203bb0        	or	a3, a11, a11
  40177f:	119425        	call8	4130c0 <__eqdf2>
  401782:	3acc      	bnez.n	a10, 401789 <_vfprintf_r+0xd39>
  401784:	140c      	movi.n	a4, 1
  401786:	966142        	s32i	a4, a1, 0x258
  401789:	a82182        	l32i	a8, a1, 0x2a0
  40178c:	61a052        	movi	a5, 97
  40178f:	fa5841        	l32r	a4, 4000f0 <_init-0x2a0>
  401792:	021857        	beq	a8, a5, 401798 <_vfprintf_r+0xd48>
  401795:	fa5741        	l32r	a4, 4000f4 <_init-0x29c>
  401798:	a52152        	l32i	a5, a1, 0x294
  40179b:	a32192        	l32i	a9, a1, 0x28c
  40179e:	850b      	addi.n	a8, a5, -1
  4017a0:	fa4fc1        	l32r	a12, 4000dc <_init-0x2b4>
  4017a3:	fa60d1        	l32r	a13, 400124 <_init-0x26c>
  4017a6:	02ad      	mov.n	a10, a2
  4017a8:	03bd      	mov.n	a11, a3
  4017aa:	b86182        	s32i	a8, a1, 0x2e0
  4017ad:	b96192        	s32i	a9, a1, 0x2e4
  4017b0:	115de5        	call8	412d90 <__muldf3>
  4017b3:	0b3d      	mov.n	a3, a11
  4017b5:	0a2d      	mov.n	a2, a10
  4017b7:	11a825        	call8	413238 <__fixdfsi>
  4017ba:	a761a2        	s32i	a10, a1, 0x29c
  4017bd:	11f6e5        	call8	41372c <__floatsidf>
  4017c0:	0acd      	mov.n	a12, a10
  4017c2:	0bdd      	mov.n	a13, a11
  4017c4:	02ad      	mov.n	a10, a2
  4017c6:	20b330        	or	a11, a3, a3
  4017c9:	1135a5        	call8	412b24 <__subdf3>
  4017cc:	a721e2        	l32i	a14, a1, 0x29c
  4017cf:	b92192        	l32i	a9, a1, 0x2e4
  4017d2:	64ea      	add.n	a6, a4, a14
  4017d4:	000662        	l8ui	a6, a6, 0
  4017d7:	591b      	addi.n	a5, a9, 1
  4017d9:	004962        	s8i	a6, a9, 0
  4017dc:	b82182        	l32i	a8, a1, 0x2e0
  4017df:	b46152        	s32i	a5, a1, 0x2d0
  4017e2:	0a2d      	mov.n	a2, a10
  4017e4:	0b3d      	mov.n	a3, a11
  4017e6:	086d      	mov.n	a6, a8
  4017e8:	190826        	beqi	a8, -1, 401805 <_vfprintf_r+0xdb5>
  4017eb:	fa3cc1        	l32r	a12, 4000dc <_init-0x2b4>
  4017ee:	fa3bd1        	l32r	a13, 4000dc <_init-0x2b4>
  4017f1:	880b      	addi.n	a8, a8, -1
  4017f3:	b86182        	s32i	a8, a1, 0x2e0
  4017f6:	b96152        	s32i	a5, a1, 0x2e4
  4017f9:	118c65        	call8	4130c0 <__eqdf2>
  4017fc:	b82182        	l32i	a8, a1, 0x2e0
  4017ff:	b92192        	l32i	a9, a1, 0x2e4
  401802:	f9aa56        	bnez	a10, 4017a0 <_vfprintf_r+0xd50>
  401805:	fa35c1        	l32r	a12, 4000dc <_init-0x2b4>
  401808:	fa48d1        	l32r	a13, 400128 <_init-0x268>
  40180b:	20a220        	or	a10, a2, a2
  40180e:	20b330        	or	a11, a3, a3
  401811:	118e25        	call8	4130f4 <__gtdf2>
  401814:	151ae6        	bgei	a10, 1, 40182d <_vfprintf_r+0xddd>
  401817:	fa31c1        	l32r	a12, 4000dc <_init-0x2b4>
  40181a:	fa43d1        	l32r	a13, 400128 <_init-0x268>
  40181d:	02ad      	mov.n	a10, a2
  40181f:	03bd      	mov.n	a11, a3
  401821:	1189e5        	call8	4130c0 <__eqdf2>
  401824:	040a56        	bnez	a10, 401868 <_vfprintf_r+0xe18>
  401827:	a72122        	l32i	a2, a1, 0x29c
  40182a:	3a6207        	bbci	a2, 0, 401868 <_vfprintf_r+0xe18>
  40182d:	906152        	s32i	a5, a1, 0x240
  401830:	0f0432        	l8ui	a3, a4, 15
  401833:	053c      	movi.n	a5, 48
  401835:	000086        	j	40183b <_vfprintf_r+0xdeb>
  401838:	004252        	s8i	a5, a2, 0
  40183b:	902122        	l32i	a2, a1, 0x240
  40183e:	220b      	addi.n	a2, a2, -1
  401840:	906122        	s32i	a2, a1, 0x240
  401843:	000262        	l8ui	a6, a2, 0
  401846:	ee1637        	beq	a6, a3, 401838 <_vfprintf_r+0xde8>
  401849:	01c632        	addi	a3, a6, 1
  40184c:	39a052        	movi	a5, 57
  40184f:	743030        	extui	a3, a3, 0, 8
  401852:	029657        	bne	a6, a5, 401858 <_vfprintf_r+0xe08>
  401855:	0a0432        	l8ui	a3, a4, 10
  401858:	004232        	s8i	a3, a2, 0
  40185b:	000606        	j	401877 <_vfprintf_r+0xe27>
  40185e:	00          	.byte 00
  40185f:	00          	.byte 00
  401860:	004242        	s8i	a4, a2, 0
  401863:	221b      	addi.n	a2, a2, 1
  401865:	000146        	j	40186e <_vfprintf_r+0xe1e>
  401868:	052d      	mov.n	a2, a5
  40186a:	665a      	add.n	a6, a6, a5
  40186c:	043c      	movi.n	a4, 48
  40186e:	b46122        	s32i	a2, a1, 0x2d0
  401871:	c03620        	sub	a3, a6, a2
  401874:	fe83d6        	bgez	a3, 401860 <_vfprintf_r+0xe10>
  401877:	b42132        	l32i	a3, a1, 0x2d0
  40187a:	a32142        	l32i	a4, a1, 0x28c
  40187d:	c03340        	sub	a3, a3, a4
  401880:	a76132        	s32i	a3, a1, 0x29c
  401883:	002d86        	j	40193d <_vfprintf_r+0xeed>
  401886:	654c      	movi.n	a5, 70
  401888:	a52142        	l32i	a4, a1, 0x294
  40188b:	3e0c      	movi.n	a14, 3
  40188d:	081757        	beq	a7, a5, 401899 <_vfprintf_r+0xe49>
  401890:	554c      	movi.n	a5, 69
  401892:	2e0c      	movi.n	a14, 2
  401894:	019757        	bne	a7, a5, 401899 <_vfprintf_r+0xe49>
  401897:	441b      	addi.n	a4, a4, 1
  401899:	40a262        	movi	a6, 0x240
  40189c:	805160        	add	a5, a1, a6
  40189f:	50a282        	movi	a8, 0x250
  4018a2:	026152        	s32i	a5, a1, 8
  4018a5:	58a292        	movi	a9, 0x258
  4018a8:	805180        	add	a5, a1, a8
  4018ab:	1159      	s32i.n	a5, a1, 4
  4018ad:	a421a2        	l32i	a10, a1, 0x290
  4018b0:	519a      	add.n	a5, a1, a9
  4018b2:	0159      	s32i.n	a5, a1, 0
  4018b4:	04fd      	mov.n	a15, a4
  4018b6:	03cd      	mov.n	a12, a3
  4018b8:	02dd      	mov.n	a13, a2
  4018ba:	049c25        	call8	40627c <_dtoa_r>
  4018bd:	a361a2        	s32i	a10, a1, 0x28c
  4018c0:	754c      	movi.n	a5, 71
  4018c2:	169757        	bne	a7, a5, 4018dc <_vfprintf_r+0xe8c>
  4018c5:	a12152        	l32i	a5, a1, 0x284
  4018c8:	10e507        	bbsi	a5, 0, 4018dc <_vfprintf_r+0xe8c>
  4018cb:	902122        	l32i	a2, a1, 0x240
  4018ce:	a32182        	l32i	a8, a1, 0x28c
  4018d1:	c02280        	sub	a2, a2, a8
  4018d4:	a76122        	s32i	a2, a1, 0x29c
  4018d7:	001886        	j	40193d <_vfprintf_r+0xeed>
  4018da:	00          	.byte 00
  4018db:	00          	.byte 00
  4018dc:	a32192        	l32i	a9, a1, 0x28c
  4018df:	46a062        	movi	a6, 70
  4018e2:	805940        	add	a5, a9, a4
  4018e5:	249767        	bne	a7, a6, 40190d <_vfprintf_r+0xebd>
  4018e8:	000962        	l8ui	a6, a9, 0
  4018eb:	d0c662        	addi	a6, a6, -48
  4018ee:	016656        	bnez	a6, 401908 <_vfprintf_r+0xeb8>
  4018f1:	f9fac1        	l32r	a12, 4000dc <_init-0x2b4>
  4018f4:	f9fad1        	l32r	a13, 4000dc <_init-0x2b4>
  4018f7:	03ad      	mov.n	a10, a3
  4018f9:	02bd      	mov.n	a11, a2
  4018fb:	117c65        	call8	4130c0 <__eqdf2>
  4018fe:	6a8c      	beqz.n	a10, 401908 <_vfprintf_r+0xeb8>
  401900:	160c      	movi.n	a6, 1
  401902:	c04640        	sub	a4, a6, a4
  401905:	966142        	s32i	a4, a1, 0x258
  401908:	962142        	l32i	a4, a1, 0x258
  40190b:	554a      	add.n	a5, a5, a4
  40190d:	f9f3c1        	l32r	a12, 4000dc <_init-0x2b4>
  401910:	f9f3d1        	l32r	a13, 4000dc <_init-0x2b4>
  401913:	20a330        	or	a10, a3, a3
  401916:	20b220        	or	a11, a2, a2
  401919:	117a65        	call8	4130c0 <__eqdf2>
  40191c:	010a56        	bnez	a10, 401930 <_vfprintf_r+0xee0>
  40191f:	906152        	s32i	a5, a1, 0x240
  401922:	000286        	j	401930 <_vfprintf_r+0xee0>
  401925:	421b      	addi.n	a4, a2, 1
  401927:	906142        	s32i	a4, a1, 0x240
  40192a:	004232        	s8i	a3, a2, 0
  40192d:	000046        	j	401932 <_vfprintf_r+0xee2>
  401930:	033c      	movi.n	a3, 48
  401932:	902122        	l32i	a2, a1, 0x240
  401935:	ec3257        	bltu	a2, a5, 401925 <_vfprintf_r+0xed5>
  401938:	ffe3c6        	j	4018cb <_vfprintf_r+0xe7b>
  40193b:	00          	.byte 00
  40193c:	00          	.byte 00
  40193d:	734c      	movi.n	a3, 71
  40193f:	962122        	l32i	a2, a1, 0x258
  401942:	239737        	bne	a7, a3, 401969 <_vfprintf_r+0xf19>
  401945:	a52132        	l32i	a3, a1, 0x294
  401948:	102327        	blt	a3, a2, 40195c <_vfprintf_r+0xf0c>
  40194b:	d37c      	movi.n	a3, -3
  40194d:	0b2237        	blt	a2, a3, 40195c <_vfprintf_r+0xf0c>
  401950:	a72142        	l32i	a4, a1, 0x29c
  401953:	02a247        	bge	a2, a4, 401959 <_vfprintf_r+0xf09>
  401956:	005bc6        	j	401ac9 <_vfprintf_r+0x1079>
  401959:	005546        	j	401ab2 <_vfprintf_r+0x1062>
  40195c:	a82152        	l32i	a5, a1, 0x2a0
  40195f:	fec552        	addi	a5, a5, -2
  401962:	a86152        	s32i	a5, a1, 0x2a0
  401965:	000206        	j	401971 <_vfprintf_r+0xf21>
  401968:	00          	.byte 00
  401969:	634c      	movi.n	a3, 70
  40196b:	029737        	bne	a7, a3, 401971 <_vfprintf_r+0xf21>
  40196e:	004086        	j	401a74 <_vfprintf_r+0x1024>
  401971:	a82162        	l32i	a6, a1, 0x2a0
  401974:	320b      	addi.n	a3, a2, -1
  401976:	dfaf52        	movi	a5, -33
  401979:	105650        	and	a5, a6, a5
  40197c:	744060        	extui	a4, a6, 0, 8
  40197f:	966132        	s32i	a3, a1, 0x258
  401982:	164c      	movi.n	a6, 65
  401984:	049567        	bne	a5, a6, 40198c <_vfprintf_r+0xf3c>
  401987:	44fb      	addi.n	a4, a4, 15
  401989:	744040        	extui	a4, a4, 0, 8
  40198c:	10c182        	addi	a8, a1, 16
  40198f:	02d862        	addmi	a6, a8, 0x200
  401992:	374642        	s8i	a4, a6, 55
  401995:	b42c      	movi.n	a4, 43
  401997:	0063d6        	bgez	a3, 4019a1 <_vfprintf_r+0xf51>
  40199a:	130c      	movi.n	a3, 1
  40199c:	c03320        	sub	a3, a3, a2
  40199f:	d42c      	movi.n	a4, 45
  4019a1:	10c192        	addi	a9, a1, 16
  4019a4:	02d962        	addmi	a6, a9, 0x200
  4019a7:	384642        	s8i	a4, a6, 56
  4019aa:	920c      	movi.n	a2, 9
  4019ac:	60a237        	bge	a2, a3, 401a10 <_vfprintf_r+0xfc0>
  4019af:	37a222        	movi	a2, 0x237
  4019b2:	292a      	add.n	a2, a9, a2
  4019b4:	f9de81        	l32r	a8, 40012c <_init-0x264>
  4019b7:	63a072        	movi	a7, 99
  4019ba:	0000c6        	j	4019c1 <_vfprintf_r+0xf71>
  4019bd:	062d      	mov.n	a2, a6
  4019bf:	043d      	mov.n	a3, a4
  4019c1:	b24380        	mulsh	a4, a3, a8
  4019c4:	315f30        	srai	a5, a3, 31
  4019c7:	214240        	srai	a4, a4, 2
  4019ca:	c04450        	sub	a4, a4, a5
  4019cd:	1154e0        	slli	a5, a4, 2
  4019d0:	554a      	add.n	a5, a5, a4
  4019d2:	1155f0        	slli	a5, a5, 1
  4019d5:	c05350        	sub	a5, a3, a5
  4019d8:	620b      	addi.n	a6, a2, -1
  4019da:	30c552        	addi	a5, a5, 48
  4019dd:	004652        	s8i	a5, a6, 0
  4019e0:	d92737        	blt	a7, a3, 4019bd <_vfprintf_r+0xf6d>
  4019e3:	10c1a2        	addi	a10, a1, 16
  4019e6:	fec222        	addi	a2, a2, -2
  4019e9:	30c442        	addi	a4, a4, 48
  4019ec:	39a232        	movi	a3, 0x239
  4019ef:	37a252        	movi	a5, 0x237
  4019f2:	004242        	s8i	a4, a2, 0
  4019f5:	3a3a      	add.n	a3, a10, a3
  4019f7:	5a5a      	add.n	a5, a10, a5
  4019f9:	000246        	j	401a06 <_vfprintf_r+0xfb6>
  4019fc:	000242        	l8ui	a4, a2, 0
  4019ff:	221b      	addi.n	a2, a2, 1
  401a01:	004342        	s8i	a4, a3, 0
  401a04:	331b      	addi.n	a3, a3, 1
  401a06:	034d      	mov.n	a4, a3
  401a08:	f03257        	bltu	a2, a5, 4019fc <_vfprintf_r+0xfac>
  401a0b:	000886        	j	401a31 <_vfprintf_r+0xfe1>
  401a0e:	00          	.byte 00
  401a0f:	00          	.byte 00
  401a10:	37a242        	movi	a4, 0x237
  401a13:	10c1b2        	addi	a11, a1, 16
  401a16:	2b4a      	add.n	a2, a11, a4
  401a18:	174c      	movi.n	a7, 65
  401a1a:	222b      	addi.n	a2, a2, 2
  401a1c:	091577        	beq	a5, a7, 401a29 <_vfprintf_r+0xfd9>
  401a1f:	023c      	movi.n	a2, 48
  401a21:	394622        	s8i	a2, a6, 57
  401a24:	2b4a      	add.n	a2, a11, a4
  401a26:	03c222        	addi	a2, a2, 3
  401a29:	30c332        	addi	a3, a3, 48
  401a2c:	421b      	addi.n	a4, a2, 1
  401a2e:	004232        	s8i	a3, a2, 0
  401a31:	47a222        	movi	a2, 0x247
  401a34:	212a      	add.n	a2, a1, a2
  401a36:	a72132        	l32i	a3, a1, 0x29c
  401a39:	c02420        	sub	a2, a4, a2
  401a3c:	b66122        	s32i	a2, a1, 0x2d8
  401a3f:	223a      	add.n	a2, a2, a3
  401a41:	a56122        	s32i	a2, a1, 0x294
  401a44:	0523e6        	bgei	a3, 2, 401a4d <_vfprintf_r+0xffd>
  401a47:	a12142        	l32i	a4, a1, 0x284
  401a4a:	0a6407        	bbci	a4, 0, 401a58 <_vfprintf_r+0x1008>
  401a4d:	a52152        	l32i	a5, a1, 0x294
  401a50:	af2162        	l32i	a6, a1, 0x2bc
  401a53:	556a      	add.n	a5, a5, a6
  401a55:	a56152        	s32i	a5, a1, 0x294
  401a58:	a12182        	l32i	a8, a1, 0x284
  401a5b:	ffab22        	movi	a2, 0xfffffbff
  401a5e:	102820        	and	a2, a8, a2
  401a61:	00a132        	movi	a3, 0x100
  401a64:	203230        	or	a3, a2, a3
  401a67:	b06132        	s32i	a3, a1, 0x2c0
  401a6a:	030c      	movi.n	a3, 0
  401a6c:	035d      	mov.n	a5, a3
  401a6e:	032d      	mov.n	a2, a3
  401a70:	003846        	j	401b55 <_vfprintf_r+0x1105>
  401a73:	00          	.byte 00
  401a74:	a12192        	l32i	a9, a1, 0x284
  401a77:	a52142        	l32i	a4, a1, 0x294
  401a7a:	043090        	extui	a3, a9, 0, 1
  401a7d:	203340        	or	a3, a3, a4
  401a80:	1512a6        	blti	a2, 1, 401a99 <_vfprintf_r+0x1049>
  401a83:	065316        	beqz	a3, 401aec <_vfprintf_r+0x109c>
  401a86:	af2152        	l32i	a5, a1, 0x2bc
  401a89:	66a062        	movi	a6, 102
  401a8c:	325a      	add.n	a3, a2, a5
  401a8e:	443a      	add.n	a4, a4, a3
  401a90:	a56142        	s32i	a4, a1, 0x294
  401a93:	a86162        	s32i	a6, a1, 0x2a0
  401a96:	001a86        	j	401b04 <_vfprintf_r+0x10b4>
  401a99:	05c316        	beqz	a3, 401af9 <_vfprintf_r+0x10a9>
  401a9c:	af2182        	l32i	a8, a1, 0x2bc
  401a9f:	a52192        	l32i	a9, a1, 0x294
  401aa2:	381b      	addi.n	a3, a8, 1
  401aa4:	993a      	add.n	a9, a9, a3
  401aa6:	66a032        	movi	a3, 102
  401aa9:	a56192        	s32i	a9, a1, 0x294
  401aac:	a86132        	s32i	a3, a1, 0x2a0
  401aaf:	001446        	j	401b04 <_vfprintf_r+0x10b4>
  401ab2:	67a042        	movi	a4, 103
  401ab5:	af2162        	l32i	a6, a1, 0x2bc
  401ab8:	a12152        	l32i	a5, a1, 0x284
  401abb:	a56122        	s32i	a2, a1, 0x294
  401abe:	a86142        	s32i	a4, a1, 0x2a0
  401ac1:	626a      	add.n	a6, a2, a6
  401ac3:	1de507        	bbsi	a5, 0, 401ae4 <_vfprintf_r+0x1094>
  401ac6:	000e86        	j	401b04 <_vfprintf_r+0x10b4>
  401ac9:	a72192        	l32i	a9, a1, 0x29c
  401acc:	af2132        	l32i	a3, a1, 0x2bc
  401acf:	67a042        	movi	a4, 103
  401ad2:	809930        	add	a9, a9, a3
  401ad5:	a56192        	s32i	a9, a1, 0x294
  401ad8:	a86142        	s32i	a4, a1, 0x2a0
  401adb:	2512e6        	bgei	a2, 1, 401b04 <_vfprintf_r+0x10b4>
  401ade:	c06920        	sub	a6, a9, a2
  401ae1:	01c662        	addi	a6, a6, 1
  401ae4:	a56162        	s32i	a6, a1, 0x294
  401ae7:	000646        	j	401b04 <_vfprintf_r+0x10b4>
  401aea:	00          	.byte 00
  401aeb:	00          	.byte 00
  401aec:	66a052        	movi	a5, 102
  401aef:	a56122        	s32i	a2, a1, 0x294
  401af2:	a86152        	s32i	a5, a1, 0x2a0
  401af5:	0002c6        	j	401b04 <_vfprintf_r+0x10b4>
  401af8:	00          	.byte 00
  401af9:	66a062        	movi	a6, 102
  401afc:	180c      	movi.n	a8, 1
  401afe:	a86162        	s32i	a6, a1, 0x2a0
  401b01:	a56182        	s32i	a8, a1, 0x294
  401b04:	a12192        	l32i	a9, a1, 0x284
  401b07:	00a452        	movi	a5, 0x400
  401b0a:	105950        	and	a5, a9, a5
  401b0d:	030c      	movi.n	a3, 0
  401b0f:	421537        	beq	a5, a3, 401b55 <_vfprintf_r+0x1105>
  401b12:	035d      	mov.n	a5, a3
  401b14:	2112e6        	bgei	a2, 1, 401b39 <_vfprintf_r+0x10e9>
  401b17:	000e86        	j	401b55 <_vfprintf_r+0x1105>
  401b1a:	00          	.byte 00
  401b1b:	00          	.byte 00
  401b1c:	25a427        	bge	a4, a2, 401b45 <_vfprintf_r+0x10f5>
  401b1f:	ad2182        	l32i	a8, a1, 0x2b4
  401b22:	c02240        	sub	a2, a2, a4
  401b25:	010842        	l8ui	a4, a8, 1
  401b28:	848c      	beqz.n	a4, 401b34 <_vfprintf_r+0x10e4>
  401b2a:	881b      	addi.n	a8, a8, 1
  401b2c:	551b      	addi.n	a5, a5, 1
  401b2e:	ad6182        	s32i	a8, a1, 0x2b4
  401b31:	0001c6        	j	401b3c <_vfprintf_r+0x10ec>
  401b34:	331b      	addi.n	a3, a3, 1
  401b36:	000086        	j	401b3c <_vfprintf_r+0x10ec>
  401b39:	ffa062        	movi	a6, 255
  401b3c:	ad2192        	l32i	a9, a1, 0x2b4
  401b3f:	000942        	l8ui	a4, a9, 0
  401b42:	d69467        	bne	a4, a6, 401b1c <_vfprintf_r+0x10cc>
  401b45:	b12162        	l32i	a6, a1, 0x2c4
  401b48:	453a      	add.n	a4, a5, a3
  401b4a:	a52182        	l32i	a8, a1, 0x294
  401b4d:	824460        	mull	a4, a4, a6
  401b50:	848a      	add.n	a8, a4, a8
  401b52:	a56182        	s32i	a8, a1, 0x294
  401b55:	b02192        	l32i	a9, a1, 0x2c0
  401b58:	b22162        	l32i	a6, a1, 0x2c8
  401b5b:	a16192        	s32i	a9, a1, 0x284
  401b5e:	16cc      	bnez.n	a6, 401b63 <_vfprintf_r+0x1113>
  401b60:	049106        	j	402da8 <_vfprintf_r+0x2358>
  401b63:	10c1a2        	addi	a10, a1, 16
  401b66:	d62c      	movi.n	a6, 45
  401b68:	02da42        	addmi	a4, a10, 0x200
  401b6b:	564462        	s8i	a6, a4, 86
  401b6e:	060c      	movi.n	a6, 0
  401b70:	048d06        	j	402da8 <_vfprintf_r+0x2358>
  401b73:	a12162        	l32i	a6, a1, 0x284
  401b76:	982152        	l32i	a5, a1, 0x260
  401b79:	02e657        	bbsi	a6, 5, 401b7f <_vfprintf_r+0x112f>
  401b7c:	003106        	j	401c44 <_vfprintf_r+0x11f4>
  401b7f:	64bc      	beqz.n	a4, 401bb9 <_vfprintf_r+0x1169>
  401b81:	0ca257        	bge	a2, a5, 401b91 <_vfprintf_r+0x1141>
  401b84:	1122d0        	slli	a2, a2, 3
  401b87:	10c182        	addi	a8, a1, 16
  401b8a:	282a      	add.n	a2, a8, a2
  401b8c:	0228      	l32i.n	a2, a2, 0
  401b8e:	000846        	j	401bb3 <_vfprintf_r+0x1163>
  401b91:	5ca292        	movi	a9, 0x25c
  401b94:	10c1a2        	addi	a10, a1, 16
  401b97:	419a      	add.n	a4, a1, a9
  401b99:	50a2d2        	movi	a13, 0x250
  401b9c:	60a2c2        	movi	a12, 0x260
  401b9f:	01daf2        	addmi	a15, a10, 0x100
  401ba2:	0aed      	mov.n	a14, a10
  401ba4:	dada      	add.n	a13, a10, a13
  401ba6:	caca      	add.n	a12, a10, a12
  401ba8:	0149      	s32i.n	a4, a1, 0
  401baa:	02ad      	mov.n	a10, a2
  401bac:	03bd      	mov.n	a11, a3
  401bae:	fe9e25        	call8	400590 <get_arg$isra$0>
  401bb1:	0a28      	l32i.n	a2, a10, 0
  401bb3:	9f2162        	l32i	a6, a1, 0x27c
  401bb6:	001ec6        	j	401c35 <_vfprintf_r+0x11e5>
  401bb9:	9f2132        	l32i	a3, a1, 0x27c
  401bbc:	631b      	addi.n	a6, a3, 1
  401bbe:	0aa357        	bge	a3, a5, 401bcc <_vfprintf_r+0x117c>
  401bc1:	1122d0        	slli	a2, a2, 3
  401bc4:	10c142        	addi	a4, a1, 16
  401bc7:	242a      	add.n	a2, a4, a2
  401bc9:	001986        	j	401c33 <_vfprintf_r+0x11e3>
  401bcc:	10c182        	addi	a8, a1, 16
  401bcf:	02d822        	addmi	a2, a8, 0x200
  401bd2:	1a2272        	l32i	a7, a2, 104
  401bd5:	f81c      	movi.n	a8, 31
  401bd7:	474b      	addi.n	a4, a7, 4
  401bd9:	831c      	movi.n	a3, 24
  401bdb:	332857        	blt	a8, a5, 401c12 <_vfprintf_r+0x11c2>
  401bde:	851b      	addi.n	a8, a5, 1
  401be0:	986182        	s32i	a8, a1, 0x260
  401be3:	1a6242        	s32i	a4, a2, 104
  401be6:	062347        	blt	a3, a4, 401bf0 <_vfprintf_r+0x11a0>
  401be9:	192222        	l32i	a2, a2, 100
  401bec:	0002c6        	j	401bfb <_vfprintf_r+0x11ab>
  401bef:	00          	.byte 00
  401bf0:	042377        	blt	a3, a7, 401bf8 <_vfprintf_r+0x11a8>
  401bf3:	432c      	movi.n	a3, 36
  401bf5:	1a6232        	s32i	a3, a2, 104
  401bf8:	9c2122        	l32i	a2, a1, 0x270
  401bfb:	9e2132        	l32i	a3, a1, 0x278
  401bfe:	1155d0        	slli	a5, a5, 3
  401c01:	223a      	add.n	a2, a2, a3
  401c03:	fcc222        	addi	a2, a2, -4
  401c06:	0228      	l32i.n	a2, a2, 0
  401c08:	10c192        	addi	a9, a1, 16
  401c0b:	595a      	add.n	a5, a9, a5
  401c0d:	0529      	s32i.n	a2, a5, 0
  401c0f:	000886        	j	401c35 <_vfprintf_r+0x11e5>
  401c12:	1a6242        	s32i	a4, a2, 104
  401c15:	072347        	blt	a3, a4, 401c20 <_vfprintf_r+0x11d0>
  401c18:	192222        	l32i	a2, a2, 100
  401c1b:	000306        	j	401c2b <_vfprintf_r+0x11db>
  401c1e:	00          	.byte 00
  401c1f:	00          	.byte 00
  401c20:	042377        	blt	a3, a7, 401c28 <_vfprintf_r+0x11d8>
  401c23:	432c      	movi.n	a3, 36
  401c25:	1a6232        	s32i	a3, a2, 104
  401c28:	9c2122        	l32i	a2, a1, 0x270
  401c2b:	9e2132        	l32i	a3, a1, 0x278
  401c2e:	223a      	add.n	a2, a2, a3
  401c30:	fcc222        	addi	a2, a2, -4
  401c33:	0228      	l32i.n	a2, a2, 0
  401c35:	ae2132        	l32i	a3, a1, 0x2b8
  401c38:	0239      	s32i.n	a3, a2, 0
  401c3a:	034d      	mov.n	a4, a3
  401c3c:	313f30        	srai	a3, a3, 31
  401c3f:	1239      	s32i.n	a3, a2, 4
  401c41:	00b746        	j	401f22 <_vfprintf_r+0x14d2>
  401c44:	a12162        	l32i	a6, a1, 0x284
  401c47:	02e647        	bbsi	a6, 4, 401c4d <_vfprintf_r+0x11fd>
  401c4a:	002086        	j	401cd0 <_vfprintf_r+0x1280>
  401c4d:	34ac      	beqz.n	a4, 401c74 <_vfprintf_r+0x1224>
  401c4f:	0aa257        	bge	a2, a5, 401c5d <_vfprintf_r+0x120d>
  401c52:	1122d0        	slli	a2, a2, 3
  401c55:	10c182        	addi	a8, a1, 16
  401c58:	282a      	add.n	a2, a8, a2
  401c5a:	008546        	j	401e73 <_vfprintf_r+0x1423>
  401c5d:	5ca292        	movi	a9, 0x25c
  401c60:	10c1a2        	addi	a10, a1, 16
  401c63:	419a      	add.n	a4, a1, a9
  401c65:	0149      	s32i.n	a4, a1, 0
  401c67:	01daf2        	addmi	a15, a10, 0x100
  401c6a:	50a2d2        	movi	a13, 0x250
  401c6d:	0aed      	mov.n	a14, a10
  401c6f:	0085c6        	j	401e8a <_vfprintf_r+0x143a>
  401c72:	00          	.byte 00
  401c73:	00          	.byte 00
  401c74:	9f2132        	l32i	a3, a1, 0x27c
  401c77:	631b      	addi.n	a6, a3, 1
  401c79:	0ba357        	bge	a3, a5, 401c88 <_vfprintf_r+0x1238>
  401c7c:	1122d0        	slli	a2, a2, 3
  401c7f:	10c142        	addi	a4, a1, 16
  401c82:	242a      	add.n	a2, a4, a2
  401c84:	00a4c6        	j	401f1b <_vfprintf_r+0x14cb>
  401c87:	00          	.byte 00
  401c88:	10c182        	addi	a8, a1, 16
  401c8b:	02d822        	addmi	a2, a8, 0x200
  401c8e:	1a2272        	l32i	a7, a2, 104
  401c91:	f81c      	movi.n	a8, 31
  401c93:	474b      	addi.n	a4, a7, 4
  401c95:	831c      	movi.n	a3, 24
  401c97:	02a857        	bge	a8, a5, 401c9d <_vfprintf_r+0x124d>
  401c9a:	009786        	j	401efc <_vfprintf_r+0x14ac>
  401c9d:	851b      	addi.n	a8, a5, 1
  401c9f:	986182        	s32i	a8, a1, 0x260
  401ca2:	1a6242        	s32i	a4, a2, 104
  401ca5:	072347        	blt	a3, a4, 401cb0 <_vfprintf_r+0x1260>
  401ca8:	192222        	l32i	a2, a2, 100
  401cab:	000306        	j	401cbb <_vfprintf_r+0x126b>
  401cae:	00          	.byte 00
  401caf:	00          	.byte 00
  401cb0:	042377        	blt	a3, a7, 401cb8 <_vfprintf_r+0x1268>
  401cb3:	432c      	movi.n	a3, 36
  401cb5:	1a6232        	s32i	a3, a2, 104
  401cb8:	9c2122        	l32i	a2, a1, 0x270
  401cbb:	9e2132        	l32i	a3, a1, 0x278
  401cbe:	1155d0        	slli	a5, a5, 3
  401cc1:	223a      	add.n	a2, a2, a3
  401cc3:	fcc222        	addi	a2, a2, -4
  401cc6:	10c192        	addi	a9, a1, 16
  401cc9:	0228      	l32i.n	a2, a2, 0
  401ccb:	595a      	add.n	a5, a9, a5
  401ccd:	008906        	j	401ef5 <_vfprintf_r+0x14a5>
  401cd0:	a12162        	l32i	a6, a1, 0x284
  401cd3:	02e667        	bbsi	a6, 6, 401cd9 <_vfprintf_r+0x1289>
  401cd6:	003086        	j	401d9c <_vfprintf_r+0x134c>
  401cd9:	74bc      	beqz.n	a4, 401d14 <_vfprintf_r+0x12c4>
  401cdb:	0da257        	bge	a2, a5, 401cec <_vfprintf_r+0x129c>
  401cde:	1122d0        	slli	a2, a2, 3
  401ce1:	10c182        	addi	a8, a1, 16
  401ce4:	282a      	add.n	a2, a8, a2
  401ce6:	0228      	l32i.n	a2, a2, 0
  401ce8:	000886        	j	401d0e <_vfprintf_r+0x12be>
  401ceb:	00          	.byte 00
  401cec:	5ca292        	movi	a9, 0x25c
  401cef:	10c1a2        	addi	a10, a1, 16
  401cf2:	419a      	add.n	a4, a1, a9
  401cf4:	50a2d2        	movi	a13, 0x250
  401cf7:	60a2c2        	movi	a12, 0x260
  401cfa:	01daf2        	addmi	a15, a10, 0x100
  401cfd:	0aed      	mov.n	a14, a10
  401cff:	dada      	add.n	a13, a10, a13
  401d01:	caca      	add.n	a12, a10, a12
  401d03:	0149      	s32i.n	a4, a1, 0
  401d05:	02ad      	mov.n	a10, a2
  401d07:	03bd      	mov.n	a11, a3
  401d09:	fe8865        	call8	400590 <get_arg$isra$0>
  401d0c:	0a28      	l32i.n	a2, a10, 0
  401d0e:	9f2162        	l32i	a6, a1, 0x27c
  401d11:	001f06        	j	401d91 <_vfprintf_r+0x1341>
  401d14:	9f2132        	l32i	a3, a1, 0x27c
  401d17:	631b      	addi.n	a6, a3, 1
  401d19:	0ba357        	bge	a3, a5, 401d28 <_vfprintf_r+0x12d8>
  401d1c:	1122d0        	slli	a2, a2, 3
  401d1f:	10c142        	addi	a4, a1, 16
  401d22:	242a      	add.n	a2, a4, a2
  401d24:	0019c6        	j	401d8f <_vfprintf_r+0x133f>
  401d27:	00          	.byte 00
  401d28:	10c182        	addi	a8, a1, 16
  401d2b:	02d822        	addmi	a2, a8, 0x200
  401d2e:	1a2272        	l32i	a7, a2, 104
  401d31:	f81c      	movi.n	a8, 31
  401d33:	474b      	addi.n	a4, a7, 4
  401d35:	831c      	movi.n	a3, 24
  401d37:	352857        	blt	a8, a5, 401d70 <_vfprintf_r+0x1320>
  401d3a:	851b      	addi.n	a8, a5, 1
  401d3c:	986182        	s32i	a8, a1, 0x260
  401d3f:	1a6242        	s32i	a4, a2, 104
  401d42:	052347        	blt	a3, a4, 401d4b <_vfprintf_r+0x12fb>
  401d45:	192222        	l32i	a2, a2, 100
  401d48:	0002c6        	j	401d57 <_vfprintf_r+0x1307>
  401d4b:	052377        	blt	a3, a7, 401d54 <_vfprintf_r+0x1304>
  401d4e:	24a032        	movi	a3, 36
  401d51:	1a6232        	s32i	a3, a2, 104
  401d54:	9c2122        	l32i	a2, a1, 0x270
  401d57:	9e2132        	l32i	a3, a1, 0x278
  401d5a:	1155d0        	slli	a5, a5, 3
  401d5d:	223a      	add.n	a2, a2, a3
  401d5f:	fcc222        	addi	a2, a2, -4
  401d62:	0228      	l32i.n	a2, a2, 0
  401d64:	10c192        	addi	a9, a1, 16
  401d67:	595a      	add.n	a5, a9, a5
  401d69:	0529      	s32i.n	a2, a5, 0
  401d6b:	000886        	j	401d91 <_vfprintf_r+0x1341>
  401d6e:	00          	.byte 00
  401d6f:	00          	.byte 00
  401d70:	1a6242        	s32i	a4, a2, 104
  401d73:	052347        	blt	a3, a4, 401d7c <_vfprintf_r+0x132c>
  401d76:	192222        	l32i	a2, a2, 100
  401d79:	000286        	j	401d87 <_vfprintf_r+0x1337>
  401d7c:	042377        	blt	a3, a7, 401d84 <_vfprintf_r+0x1334>
  401d7f:	432c      	movi.n	a3, 36
  401d81:	1a6232        	s32i	a3, a2, 104
  401d84:	9c2122        	l32i	a2, a1, 0x270
  401d87:	9e2132        	l32i	a3, a1, 0x278
  401d8a:	223a      	add.n	a2, a2, a3
  401d8c:	fcc222        	addi	a2, a2, -4
  401d8f:	0228      	l32i.n	a2, a2, 0
  401d91:	ae2132        	l32i	a3, a1, 0x2b8
  401d94:	005232        	s16i	a3, a2, 0
  401d97:	0061c6        	j	401f22 <_vfprintf_r+0x14d2>
  401d9a:	00          	.byte 00
  401d9b:	00          	.byte 00
  401d9c:	a12162        	l32i	a6, a1, 0x284
  401d9f:	02e697        	bbsi	a6, 9, 401da5 <_vfprintf_r+0x1355>
  401da2:	003006        	j	401e66 <_vfprintf_r+0x1416>
  401da5:	74bc      	beqz.n	a4, 401de0 <_vfprintf_r+0x1390>
  401da7:	0da257        	bge	a2, a5, 401db8 <_vfprintf_r+0x1368>
  401daa:	1122d0        	slli	a2, a2, 3
  401dad:	10c182        	addi	a8, a1, 16
  401db0:	282a      	add.n	a2, a8, a2
  401db2:	0228      	l32i.n	a2, a2, 0
  401db4:	000886        	j	401dda <_vfprintf_r+0x138a>
  401db7:	00          	.byte 00
  401db8:	5ca292        	movi	a9, 0x25c
  401dbb:	10c1a2        	addi	a10, a1, 16
  401dbe:	419a      	add.n	a4, a1, a9
  401dc0:	50a2d2        	movi	a13, 0x250
  401dc3:	60a2c2        	movi	a12, 0x260
  401dc6:	01daf2        	addmi	a15, a10, 0x100
  401dc9:	0aed      	mov.n	a14, a10
  401dcb:	dada      	add.n	a13, a10, a13
  401dcd:	caca      	add.n	a12, a10, a12
  401dcf:	0149      	s32i.n	a4, a1, 0
  401dd1:	02ad      	mov.n	a10, a2
  401dd3:	03bd      	mov.n	a11, a3
  401dd5:	fe7ba5        	call8	400590 <get_arg$isra$0>
  401dd8:	0a28      	l32i.n	a2, a10, 0
  401dda:	9f2162        	l32i	a6, a1, 0x27c
  401ddd:	001f06        	j	401e5d <_vfprintf_r+0x140d>
  401de0:	9f2132        	l32i	a3, a1, 0x27c
  401de3:	631b      	addi.n	a6, a3, 1
  401de5:	0ba357        	bge	a3, a5, 401df4 <_vfprintf_r+0x13a4>
  401de8:	1122d0        	slli	a2, a2, 3
  401deb:	10c142        	addi	a4, a1, 16
  401dee:	242a      	add.n	a2, a4, a2
  401df0:	0019c6        	j	401e5b <_vfprintf_r+0x140b>
  401df3:	00          	.byte 00
  401df4:	10c182        	addi	a8, a1, 16
  401df7:	02d822        	addmi	a2, a8, 0x200
  401dfa:	1a2272        	l32i	a7, a2, 104
  401dfd:	f81c      	movi.n	a8, 31
  401dff:	474b      	addi.n	a4, a7, 4
  401e01:	831c      	movi.n	a3, 24
  401e03:	352857        	blt	a8, a5, 401e3c <_vfprintf_r+0x13ec>
  401e06:	851b      	addi.n	a8, a5, 1
  401e08:	986182        	s32i	a8, a1, 0x260
  401e0b:	1a6242        	s32i	a4, a2, 104
  401e0e:	062347        	blt	a3, a4, 401e18 <_vfprintf_r+0x13c8>
  401e11:	192222        	l32i	a2, a2, 100
  401e14:	0002c6        	j	401e23 <_vfprintf_r+0x13d3>
  401e17:	00          	.byte 00
  401e18:	042377        	blt	a3, a7, 401e20 <_vfprintf_r+0x13d0>
  401e1b:	432c      	movi.n	a3, 36
  401e1d:	1a6232        	s32i	a3, a2, 104
  401e20:	9c2122        	l32i	a2, a1, 0x270
  401e23:	9e2132        	l32i	a3, a1, 0x278
  401e26:	1155d0        	slli	a5, a5, 3
  401e29:	223a      	add.n	a2, a2, a3
  401e2b:	fcc222        	addi	a2, a2, -4
  401e2e:	0228      	l32i.n	a2, a2, 0
  401e30:	10c192        	addi	a9, a1, 16
  401e33:	595a      	add.n	a5, a9, a5
  401e35:	0529      	s32i.n	a2, a5, 0
  401e37:	000886        	j	401e5d <_vfprintf_r+0x140d>
  401e3a:	00          	.byte 00
  401e3b:	00          	.byte 00
  401e3c:	1a6242        	s32i	a4, a2, 104
  401e3f:	052347        	blt	a3, a4, 401e48 <_vfprintf_r+0x13f8>
  401e42:	192222        	l32i	a2, a2, 100
  401e45:	000286        	j	401e53 <_vfprintf_r+0x1403>
  401e48:	042377        	blt	a3, a7, 401e50 <_vfprintf_r+0x1400>
  401e4b:	432c      	movi.n	a3, 36
  401e4d:	1a6232        	s32i	a3, a2, 104
  401e50:	9c2122        	l32i	a2, a1, 0x270
  401e53:	9e2132        	l32i	a3, a1, 0x278
  401e56:	223a      	add.n	a2, a2, a3
  401e58:	fcc222        	addi	a2, a2, -4
  401e5b:	0228      	l32i.n	a2, a2, 0
  401e5d:	ae2132        	l32i	a3, a1, 0x2b8
  401e60:	004232        	s8i	a3, a2, 0
  401e63:	002ec6        	j	401f22 <_vfprintf_r+0x14d2>
  401e66:	64bc      	beqz.n	a4, 401ea0 <_vfprintf_r+0x1450>
  401e68:	0ca257        	bge	a2, a5, 401e78 <_vfprintf_r+0x1428>
  401e6b:	1122d0        	slli	a2, a2, 3
  401e6e:	10c142        	addi	a4, a1, 16
  401e71:	242a      	add.n	a2, a4, a2
  401e73:	0228      	l32i.n	a2, a2, 0
  401e75:	000846        	j	401e9a <_vfprintf_r+0x144a>
  401e78:	5ca252        	movi	a5, 0x25c
  401e7b:	10c162        	addi	a6, a1, 16
  401e7e:	415a      	add.n	a4, a1, a5
  401e80:	0149      	s32i.n	a4, a1, 0
  401e82:	01d6f2        	addmi	a15, a6, 0x100
  401e85:	50a2d2        	movi	a13, 0x250
  401e88:	06ed      	mov.n	a14, a6
  401e8a:	60a2c2        	movi	a12, 0x260
  401e8d:	02ad      	mov.n	a10, a2
  401e8f:	deda      	add.n	a13, a14, a13
  401e91:	ceca      	add.n	a12, a14, a12
  401e93:	03bd      	mov.n	a11, a3
  401e95:	fe6fa5        	call8	400590 <get_arg$isra$0>
  401e98:	0a28      	l32i.n	a2, a10, 0
  401e9a:	9f2162        	l32i	a6, a1, 0x27c
  401e9d:	001f06        	j	401f1d <_vfprintf_r+0x14cd>
  401ea0:	9f2182        	l32i	a8, a1, 0x27c
  401ea3:	681b      	addi.n	a6, a8, 1
  401ea5:	0ba857        	bge	a8, a5, 401eb4 <_vfprintf_r+0x1464>
  401ea8:	1122d0        	slli	a2, a2, 3
  401eab:	10c192        	addi	a9, a1, 16
  401eae:	292a      	add.n	a2, a9, a2
  401eb0:	0019c6        	j	401f1b <_vfprintf_r+0x14cb>
  401eb3:	00          	.byte 00
  401eb4:	10c1a2        	addi	a10, a1, 16
  401eb7:	02da22        	addmi	a2, a10, 0x200
  401eba:	1a2272        	l32i	a7, a2, 104
  401ebd:	f81c      	movi.n	a8, 31
  401ebf:	474b      	addi.n	a4, a7, 4
  401ec1:	831c      	movi.n	a3, 24
  401ec3:	352857        	blt	a8, a5, 401efc <_vfprintf_r+0x14ac>
  401ec6:	851b      	addi.n	a8, a5, 1
  401ec8:	986182        	s32i	a8, a1, 0x260
  401ecb:	1a6242        	s32i	a4, a2, 104
  401ece:	062347        	blt	a3, a4, 401ed8 <_vfprintf_r+0x1488>
  401ed1:	192222        	l32i	a2, a2, 100
  401ed4:	0002c6        	j	401ee3 <_vfprintf_r+0x1493>
  401ed7:	00          	.byte 00
  401ed8:	042377        	blt	a3, a7, 401ee0 <_vfprintf_r+0x1490>
  401edb:	432c      	movi.n	a3, 36
  401edd:	1a6232        	s32i	a3, a2, 104
  401ee0:	9c2122        	l32i	a2, a1, 0x270
  401ee3:	9e2132        	l32i	a3, a1, 0x278
  401ee6:	1155d0        	slli	a5, a5, 3
  401ee9:	223a      	add.n	a2, a2, a3
  401eeb:	fcc222        	addi	a2, a2, -4
  401eee:	10c1b2        	addi	a11, a1, 16
  401ef1:	0228      	l32i.n	a2, a2, 0
  401ef3:	5b5a      	add.n	a5, a11, a5
  401ef5:	0529      	s32i.n	a2, a5, 0
  401ef7:	000886        	j	401f1d <_vfprintf_r+0x14cd>
  401efa:	00          	.byte 00
  401efb:	00          	.byte 00
  401efc:	1a6242        	s32i	a4, a2, 104
  401eff:	052347        	blt	a3, a4, 401f08 <_vfprintf_r+0x14b8>
  401f02:	192222        	l32i	a2, a2, 100
  401f05:	000286        	j	401f13 <_vfprintf_r+0x14c3>
  401f08:	042377        	blt	a3, a7, 401f10 <_vfprintf_r+0x14c0>
  401f0b:	432c      	movi.n	a3, 36
  401f0d:	1a6232        	s32i	a3, a2, 104
  401f10:	9c2122        	l32i	a2, a1, 0x270
  401f13:	9e2132        	l32i	a3, a1, 0x278
  401f16:	223a      	add.n	a2, a2, a3
  401f18:	fcc222        	addi	a2, a2, -4
  401f1b:	0228      	l32i.n	a2, a2, 0
  401f1d:	ae2132        	l32i	a3, a1, 0x2b8
  401f20:	0239      	s32i.n	a3, a2, 0
  401f22:	9f6162        	s32i	a6, a1, 0x27c
  401f25:	fb2dc6        	j	400be0 <_vfprintf_r+0x190>
  401f28:	a12162        	l32i	a6, a1, 0x284
  401f2b:	051c      	movi.n	a5, 16
  401f2d:	206650        	or	a6, a6, a5
  401f30:	a16162        	s32i	a6, a1, 0x284
  401f33:	a12182        	l32i	a8, a1, 0x284
  401f36:	982172        	l32i	a7, a1, 0x260
  401f39:	02e857        	bbsi	a8, 5, 401f3f <_vfprintf_r+0x14ef>
  401f3c:	003406        	j	402010 <_vfprintf_r+0x15c0>
  401f3f:	d4bc      	beqz.n	a4, 401f80 <_vfprintf_r+0x1530>
  401f41:	0fa277        	bge	a2, a7, 401f54 <_vfprintf_r+0x1504>
  401f44:	1122d0        	slli	a2, a2, 3
  401f47:	10c192        	addi	a9, a1, 16
  401f4a:	292a      	add.n	a2, a9, a2
  401f4c:	0258      	l32i.n	a5, a2, 0
  401f4e:	1268      	l32i.n	a6, a2, 4
  401f50:	000906        	j	401f78 <_vfprintf_r+0x1528>
  401f53:	00          	.byte 00
  401f54:	5ca2a2        	movi	a10, 0x25c
  401f57:	10c1b2        	addi	a11, a1, 16
  401f5a:	41aa      	add.n	a4, a1, a10
  401f5c:	50a2d2        	movi	a13, 0x250
  401f5f:	60a2c2        	movi	a12, 0x260
  401f62:	01dbf2        	addmi	a15, a11, 0x100
  401f65:	0bed      	mov.n	a14, a11
  401f67:	dbda      	add.n	a13, a11, a13
  401f69:	cbca      	add.n	a12, a11, a12
  401f6b:	0149      	s32i.n	a4, a1, 0
  401f6d:	03bd      	mov.n	a11, a3
  401f6f:	02ad      	mov.n	a10, a2
  401f71:	fe61e5        	call8	400590 <get_arg$isra$0>
  401f74:	0a58      	l32i.n	a5, a10, 0
  401f76:	1a68      	l32i.n	a6, a10, 4
  401f78:	9f2132        	l32i	a3, a1, 0x27c
  401f7b:	00c106        	j	402283 <_vfprintf_r+0x1833>
  401f7e:	00          	.byte 00
  401f7f:	00          	.byte 00
  401f80:	9f2142        	l32i	a4, a1, 0x27c
  401f83:	341b      	addi.n	a3, a4, 1
  401f85:	0ba477        	bge	a4, a7, 401f94 <_vfprintf_r+0x1544>
  401f88:	1122d0        	slli	a2, a2, 3
  401f8b:	10c152        	addi	a5, a1, 16
  401f8e:	252a      	add.n	a2, a5, a2
  401f90:	001cc6        	j	402007 <_vfprintf_r+0x15b7>
  401f93:	00          	.byte 00
  401f94:	10c162        	addi	a6, a1, 16
  401f97:	02d622        	addmi	a2, a6, 0x200
  401f9a:	1a2242        	l32i	a4, a2, 104
  401f9d:	857c      	movi.n	a5, -8
  401f9f:	447b      	addi.n	a4, a4, 7
  401fa1:	104450        	and	a4, a4, a5
  401fa4:	f81c      	movi.n	a8, 31
  401fa6:	648b      	addi.n	a6, a4, 8
  401fa8:	851c      	movi.n	a5, 24
  401faa:	382877        	blt	a8, a7, 401fe6 <_vfprintf_r+0x1596>
  401fad:	871b      	addi.n	a8, a7, 1
  401faf:	986182        	s32i	a8, a1, 0x260
  401fb2:	1a6262        	s32i	a6, a2, 104
  401fb5:	072567        	blt	a5, a6, 401fc0 <_vfprintf_r+0x1570>
  401fb8:	192222        	l32i	a2, a2, 100
  401fbb:	000306        	j	401fcb <_vfprintf_r+0x157b>
  401fbe:	00          	.byte 00
  401fbf:	00          	.byte 00
  401fc0:	042547        	blt	a5, a4, 401fc8 <_vfprintf_r+0x1578>
  401fc3:	842c      	movi.n	a4, 40
  401fc5:	1a6242        	s32i	a4, a2, 104
  401fc8:	9c2122        	l32i	a2, a1, 0x270
  401fcb:	9e2142        	l32i	a4, a1, 0x278
  401fce:	1177d0        	slli	a7, a7, 3
  401fd1:	224a      	add.n	a2, a2, a4
  401fd3:	f8c222        	addi	a2, a2, -8
  401fd6:	0258      	l32i.n	a5, a2, 0
  401fd8:	1268      	l32i.n	a6, a2, 4
  401fda:	10c182        	addi	a8, a1, 16
  401fdd:	787a      	add.n	a7, a8, a7
  401fdf:	0759      	s32i.n	a5, a7, 0
  401fe1:	1769      	s32i.n	a6, a7, 4
  401fe3:	00a706        	j	402283 <_vfprintf_r+0x1833>
  401fe6:	1a6262        	s32i	a6, a2, 104
  401fe9:	072567        	blt	a5, a6, 401ff4 <_vfprintf_r+0x15a4>
  401fec:	192222        	l32i	a2, a2, 100
  401fef:	000306        	j	401fff <_vfprintf_r+0x15af>
  401ff2:	00          	.byte 00
  401ff3:	00          	.byte 00
  401ff4:	042547        	blt	a5, a4, 401ffc <_vfprintf_r+0x15ac>
  401ff7:	842c      	movi.n	a4, 40
  401ff9:	1a6242        	s32i	a4, a2, 104
  401ffc:	9c2122        	l32i	a2, a1, 0x270
  401fff:	9e2142        	l32i	a4, a1, 0x278
  402002:	224a      	add.n	a2, a2, a4
  402004:	f8c222        	addi	a2, a2, -8
  402007:	0258      	l32i.n	a5, a2, 0
  402009:	1268      	l32i.n	a6, a2, 4
  40200b:	009d06        	j	402283 <_vfprintf_r+0x1833>
  40200e:	00          	.byte 00
  40200f:	00          	.byte 00
  402010:	a12192        	l32i	a9, a1, 0x284
  402013:	266947        	bbci	a9, 4, 40203d <_vfprintf_r+0x15ed>
  402016:	1ea416        	beqz	a4, 402204 <_vfprintf_r+0x17b4>
  402019:	0ba277        	bge	a2, a7, 402028 <_vfprintf_r+0x15d8>
  40201c:	1122d0        	slli	a2, a2, 3
  40201f:	10c1a2        	addi	a10, a1, 16
  402022:	2a2a      	add.n	a2, a10, a2
  402024:	006bc6        	j	4021d7 <_vfprintf_r+0x1787>
  402027:	00          	.byte 00
  402028:	5ca2b2        	movi	a11, 0x25c
  40202b:	10c1c2        	addi	a12, a1, 16
  40202e:	41ba      	add.n	a4, a1, a11
  402030:	0149      	s32i.n	a4, a1, 0
  402032:	01dcf2        	addmi	a15, a12, 0x100
  402035:	50a2d2        	movi	a13, 0x250
  402038:	0ced      	mov.n	a14, a12
  40203a:	006c06        	j	4021ee <_vfprintf_r+0x179e>
  40203d:	a12192        	l32i	a9, a1, 0x284
  402040:	02e967        	bbsi	a9, 6, 402046 <_vfprintf_r+0x15f6>
  402043:	002ec6        	j	402102 <_vfprintf_r+0x16b2>
  402046:	64bc      	beqz.n	a4, 402080 <_vfprintf_r+0x1630>
  402048:	0da277        	bge	a2, a7, 402059 <_vfprintf_r+0x1609>
  40204b:	1122d0        	slli	a2, a2, 3
  40204e:	10c1a2        	addi	a10, a1, 16
  402051:	2a2a      	add.n	a2, a10, a2
  402053:	001252        	l16ui	a5, a2, 0
  402056:	006906        	j	4021fe <_vfprintf_r+0x17ae>
  402059:	10c1c2        	addi	a12, a1, 16
  40205c:	5ca2b2        	movi	a11, 0x25c
  40205f:	50a2d2        	movi	a13, 0x250
  402062:	0ced      	mov.n	a14, a12
  402064:	41ba      	add.n	a4, a1, a11
  402066:	01dcf2        	addmi	a15, a12, 0x100
  402069:	dcda      	add.n	a13, a12, a13
  40206b:	60a2c2        	movi	a12, 0x260
  40206e:	0149      	s32i.n	a4, a1, 0
  402070:	ceca      	add.n	a12, a14, a12
  402072:	03bd      	mov.n	a11, a3
  402074:	02ad      	mov.n	a10, a2
  402076:	fe51a5        	call8	400590 <get_arg$isra$0>
  402079:	001a52        	l16ui	a5, a10, 0
  40207c:	005f86        	j	4021fe <_vfprintf_r+0x17ae>
  40207f:	00          	.byte 00
  402080:	9f2142        	l32i	a4, a1, 0x27c
  402083:	341b      	addi.n	a3, a4, 1
  402085:	0ba477        	bge	a4, a7, 402094 <_vfprintf_r+0x1644>
  402088:	1122d0        	slli	a2, a2, 3
  40208b:	10c152        	addi	a5, a1, 16
  40208e:	252a      	add.n	a2, a5, a2
  402090:	001a06        	j	4020fc <_vfprintf_r+0x16ac>
  402093:	00          	.byte 00
  402094:	10c162        	addi	a6, a1, 16
  402097:	02d622        	addmi	a2, a6, 0x200
  40209a:	1a2262        	l32i	a6, a2, 104
  40209d:	f81c      	movi.n	a8, 31
  40209f:	564b      	addi.n	a5, a6, 4
  4020a1:	841c      	movi.n	a4, 24
  4020a3:	362877        	blt	a8, a7, 4020dd <_vfprintf_r+0x168d>
  4020a6:	871b      	addi.n	a8, a7, 1
  4020a8:	986182        	s32i	a8, a1, 0x260
  4020ab:	1a6252        	s32i	a5, a2, 104
  4020ae:	062457        	blt	a4, a5, 4020b8 <_vfprintf_r+0x1668>
  4020b1:	192222        	l32i	a2, a2, 100
  4020b4:	0002c6        	j	4020c3 <_vfprintf_r+0x1673>
  4020b7:	00          	.byte 00
  4020b8:	042467        	blt	a4, a6, 4020c0 <_vfprintf_r+0x1670>
  4020bb:	442c      	movi.n	a4, 36
  4020bd:	1a6242        	s32i	a4, a2, 104
  4020c0:	9c2122        	l32i	a2, a1, 0x270
  4020c3:	9e2142        	l32i	a4, a1, 0x278
  4020c6:	1177d0        	slli	a7, a7, 3
  4020c9:	224a      	add.n	a2, a2, a4
  4020cb:	fcc222        	addi	a2, a2, -4
  4020ce:	0258      	l32i.n	a5, a2, 0
  4020d0:	10c182        	addi	a8, a1, 16
  4020d3:	787a      	add.n	a7, a8, a7
  4020d5:	0759      	s32i.n	a5, a7, 0
  4020d7:	f45050        	extui	a5, a5, 0, 16
  4020da:	0068c6        	j	402281 <_vfprintf_r+0x1831>
  4020dd:	1a6252        	s32i	a5, a2, 104
  4020e0:	052457        	blt	a4, a5, 4020e9 <_vfprintf_r+0x1699>
  4020e3:	192222        	l32i	a2, a2, 100
  4020e6:	000286        	j	4020f4 <_vfprintf_r+0x16a4>
  4020e9:	042467        	blt	a4, a6, 4020f1 <_vfprintf_r+0x16a1>
  4020ec:	442c      	movi.n	a4, 36
  4020ee:	1a6242        	s32i	a4, a2, 104
  4020f1:	9c2122        	l32i	a2, a1, 0x270
  4020f4:	9e2142        	l32i	a4, a1, 0x278
  4020f7:	224a      	add.n	a2, a2, a4
  4020f9:	fcc222        	addi	a2, a2, -4
  4020fc:	001252        	l16ui	a5, a2, 0
  4020ff:	005f86        	j	402281 <_vfprintf_r+0x1831>
  402102:	a12192        	l32i	a9, a1, 0x284
  402105:	02e997        	bbsi	a9, 9, 40210b <_vfprintf_r+0x16bb>
  402108:	002f86        	j	4021ca <_vfprintf_r+0x177a>
  40210b:	94bc      	beqz.n	a4, 402148 <_vfprintf_r+0x16f8>
  40210d:	0fa277        	bge	a2, a7, 402120 <_vfprintf_r+0x16d0>
  402110:	1122d0        	slli	a2, a2, 3
  402113:	10c1a2        	addi	a10, a1, 16
  402116:	2a2a      	add.n	a2, a10, a2
  402118:	000252        	l8ui	a5, a2, 0
  40211b:	0037c6        	j	4021fe <_vfprintf_r+0x17ae>
  40211e:	00          	.byte 00
  40211f:	00          	.byte 00
  402120:	10c1c2        	addi	a12, a1, 16
  402123:	5ca2b2        	movi	a11, 0x25c
  402126:	50a2d2        	movi	a13, 0x250
  402129:	0ced      	mov.n	a14, a12
  40212b:	41ba      	add.n	a4, a1, a11
  40212d:	01dcf2        	addmi	a15, a12, 0x100
  402130:	dcda      	add.n	a13, a12, a13
  402132:	60a2c2        	movi	a12, 0x260
  402135:	0149      	s32i.n	a4, a1, 0
  402137:	ceca      	add.n	a12, a14, a12
  402139:	03bd      	mov.n	a11, a3
  40213b:	02ad      	mov.n	a10, a2
  40213d:	fe4525        	call8	400590 <get_arg$isra$0>
  402140:	000a52        	l8ui	a5, a10, 0
  402143:	002dc6        	j	4021fe <_vfprintf_r+0x17ae>
  402146:	00          	.byte 00
  402147:	00          	.byte 00
  402148:	9f2142        	l32i	a4, a1, 0x27c
  40214b:	341b      	addi.n	a3, a4, 1
  40214d:	0ba477        	bge	a4, a7, 40215c <_vfprintf_r+0x170c>
  402150:	1122d0        	slli	a2, a2, 3
  402153:	10c152        	addi	a5, a1, 16
  402156:	252a      	add.n	a2, a5, a2
  402158:	001a06        	j	4021c4 <_vfprintf_r+0x1774>
  40215b:	00          	.byte 00
  40215c:	10c162        	addi	a6, a1, 16
  40215f:	02d622        	addmi	a2, a6, 0x200
  402162:	1a2262        	l32i	a6, a2, 104
  402165:	f81c      	movi.n	a8, 31
  402167:	564b      	addi.n	a5, a6, 4
  402169:	841c      	movi.n	a4, 24
  40216b:	362877        	blt	a8, a7, 4021a5 <_vfprintf_r+0x1755>
  40216e:	871b      	addi.n	a8, a7, 1
  402170:	986182        	s32i	a8, a1, 0x260
  402173:	1a6252        	s32i	a5, a2, 104
  402176:	062457        	blt	a4, a5, 402180 <_vfprintf_r+0x1730>
  402179:	192222        	l32i	a2, a2, 100
  40217c:	0002c6        	j	40218b <_vfprintf_r+0x173b>
  40217f:	00          	.byte 00
  402180:	042467        	blt	a4, a6, 402188 <_vfprintf_r+0x1738>
  402183:	442c      	movi.n	a4, 36
  402185:	1a6242        	s32i	a4, a2, 104
  402188:	9c2122        	l32i	a2, a1, 0x270
  40218b:	9e2142        	l32i	a4, a1, 0x278
  40218e:	1177d0        	slli	a7, a7, 3
  402191:	224a      	add.n	a2, a2, a4
  402193:	fcc222        	addi	a2, a2, -4
  402196:	0258      	l32i.n	a5, a2, 0
  402198:	10c182        	addi	a8, a1, 16
  40219b:	787a      	add.n	a7, a8, a7
  40219d:	0759      	s32i.n	a5, a7, 0
  40219f:	745050        	extui	a5, a5, 0, 8
  4021a2:	0036c6        	j	402281 <_vfprintf_r+0x1831>
  4021a5:	1a6252        	s32i	a5, a2, 104
  4021a8:	052457        	blt	a4, a5, 4021b1 <_vfprintf_r+0x1761>
  4021ab:	192222        	l32i	a2, a2, 100
  4021ae:	000286        	j	4021bc <_vfprintf_r+0x176c>
  4021b1:	042467        	blt	a4, a6, 4021b9 <_vfprintf_r+0x1769>
  4021b4:	442c      	movi.n	a4, 36
  4021b6:	1a6242        	s32i	a4, a2, 104
  4021b9:	9c2122        	l32i	a2, a1, 0x270
  4021bc:	9e2142        	l32i	a4, a1, 0x278
  4021bf:	224a      	add.n	a2, a2, a4
  4021c1:	fcc222        	addi	a2, a2, -4
  4021c4:	000252        	l8ui	a5, a2, 0
  4021c7:	002d86        	j	402281 <_vfprintf_r+0x1831>
  4021ca:	64bc      	beqz.n	a4, 402204 <_vfprintf_r+0x17b4>
  4021cc:	0ca277        	bge	a2, a7, 4021dc <_vfprintf_r+0x178c>
  4021cf:	1122d0        	slli	a2, a2, 3
  4021d2:	10c192        	addi	a9, a1, 16
  4021d5:	292a      	add.n	a2, a9, a2
  4021d7:	0258      	l32i.n	a5, a2, 0
  4021d9:	000846        	j	4021fe <_vfprintf_r+0x17ae>
  4021dc:	5ca2a2        	movi	a10, 0x25c
  4021df:	10c1b2        	addi	a11, a1, 16
  4021e2:	41aa      	add.n	a4, a1, a10
  4021e4:	0149      	s32i.n	a4, a1, 0
  4021e6:	01dbf2        	addmi	a15, a11, 0x100
  4021e9:	50a2d2        	movi	a13, 0x250
  4021ec:	0bed      	mov.n	a14, a11
  4021ee:	60a2c2        	movi	a12, 0x260
  4021f1:	deda      	add.n	a13, a14, a13
  4021f3:	ceca      	add.n	a12, a14, a12
  4021f5:	03bd      	mov.n	a11, a3
  4021f7:	02ad      	mov.n	a10, a2
  4021f9:	fe3965        	call8	400590 <get_arg$isra$0>
  4021fc:	0a58      	l32i.n	a5, a10, 0
  4021fe:	9f2132        	l32i	a3, a1, 0x27c
  402201:	001f06        	j	402281 <_vfprintf_r+0x1831>
  402204:	9f2142        	l32i	a4, a1, 0x27c
  402207:	341b      	addi.n	a3, a4, 1
  402209:	0ba477        	bge	a4, a7, 402218 <_vfprintf_r+0x17c8>
  40220c:	1122d0        	slli	a2, a2, 3
  40220f:	10c152        	addi	a5, a1, 16
  402212:	252a      	add.n	a2, a5, a2
  402214:	0019c6        	j	40227f <_vfprintf_r+0x182f>
  402217:	00          	.byte 00
  402218:	10c162        	addi	a6, a1, 16
  40221b:	02d622        	addmi	a2, a6, 0x200
  40221e:	1a2262        	l32i	a6, a2, 104
  402221:	f81c      	movi.n	a8, 31
  402223:	564b      	addi.n	a5, a6, 4
  402225:	841c      	movi.n	a4, 24
  402227:	352877        	blt	a8, a7, 402260 <_vfprintf_r+0x1810>
  40222a:	871b      	addi.n	a8, a7, 1
  40222c:	986182        	s32i	a8, a1, 0x260
  40222f:	1a6252        	s32i	a5, a2, 104
  402232:	052457        	blt	a4, a5, 40223b <_vfprintf_r+0x17eb>
  402235:	192222        	l32i	a2, a2, 100
  402238:	0002c6        	j	402247 <_vfprintf_r+0x17f7>
  40223b:	052467        	blt	a4, a6, 402244 <_vfprintf_r+0x17f4>
  40223e:	24a042        	movi	a4, 36
  402241:	1a6242        	s32i	a4, a2, 104
  402244:	9c2122        	l32i	a2, a1, 0x270
  402247:	9e2142        	l32i	a4, a1, 0x278
  40224a:	1177d0        	slli	a7, a7, 3
  40224d:	224a      	add.n	a2, a2, a4
  40224f:	fcc222        	addi	a2, a2, -4
  402252:	0258      	l32i.n	a5, a2, 0
  402254:	10c182        	addi	a8, a1, 16
  402257:	787a      	add.n	a7, a8, a7
  402259:	0759      	s32i.n	a5, a7, 0
  40225b:	000886        	j	402281 <_vfprintf_r+0x1831>
  40225e:	00          	.byte 00
  40225f:	00          	.byte 00
  402260:	1a6252        	s32i	a5, a2, 104
  402263:	052457        	blt	a4, a5, 40226c <_vfprintf_r+0x181c>
  402266:	192222        	l32i	a2, a2, 100
  402269:	000286        	j	402277 <_vfprintf_r+0x1827>
  40226c:	042467        	blt	a4, a6, 402274 <_vfprintf_r+0x1824>
  40226f:	442c      	movi.n	a4, 36
  402271:	1a6242        	s32i	a4, a2, 104
  402274:	9c2122        	l32i	a2, a1, 0x270
  402277:	9e2142        	l32i	a4, a1, 0x278
  40227a:	224a      	add.n	a2, a2, a4
  40227c:	fcc222        	addi	a2, a2, -4
  40227f:	0258      	l32i.n	a5, a2, 0
  402281:	060c      	movi.n	a6, 0
  402283:	a12192        	l32i	a9, a1, 0x284
  402286:	ffab22        	movi	a2, 0xfffffbff
  402289:	109920        	and	a9, a9, a2
  40228c:	a16192        	s32i	a9, a1, 0x284
  40228f:	070c      	movi.n	a7, 0
  402291:	023b46        	j	402b82 <_vfprintf_r+0x2132>
  402294:	982162        	l32i	a6, a1, 0x260
  402297:	64bc      	beqz.n	a4, 4022d1 <_vfprintf_r+0x1881>
  402299:	0ca267        	bge	a2, a6, 4022a9 <_vfprintf_r+0x1859>
  40229c:	1122d0        	slli	a2, a2, 3
  40229f:	10c1a2        	addi	a10, a1, 16
  4022a2:	2a2a      	add.n	a2, a10, a2
  4022a4:	0258      	l32i.n	a5, a2, 0
  4022a6:	000846        	j	4022cb <_vfprintf_r+0x187b>
  4022a9:	10c1c2        	addi	a12, a1, 16
  4022ac:	5ca2b2        	movi	a11, 0x25c
  4022af:	50a2d2        	movi	a13, 0x250
  4022b2:	0ced      	mov.n	a14, a12
  4022b4:	41ba      	add.n	a4, a1, a11
  4022b6:	01dcf2        	addmi	a15, a12, 0x100
  4022b9:	dcda      	add.n	a13, a12, a13
  4022bb:	60a2c2        	movi	a12, 0x260
  4022be:	0149      	s32i.n	a4, a1, 0
  4022c0:	ceca      	add.n	a12, a14, a12
  4022c2:	03bd      	mov.n	a11, a3
  4022c4:	02ad      	mov.n	a10, a2
  4022c6:	fe2ca5        	call8	400590 <get_arg$isra$0>
  4022c9:	0a58      	l32i.n	a5, a10, 0
  4022cb:	9f2132        	l32i	a3, a1, 0x27c
  4022ce:	001ec6        	j	40234d <_vfprintf_r+0x18fd>
  4022d1:	9f2142        	l32i	a4, a1, 0x27c
  4022d4:	341b      	addi.n	a3, a4, 1
  4022d6:	0aa467        	bge	a4, a6, 4022e4 <_vfprintf_r+0x1894>
  4022d9:	1122d0        	slli	a2, a2, 3
  4022dc:	10c152        	addi	a5, a1, 16
  4022df:	252a      	add.n	a2, a5, a2
  4022e1:	001986        	j	40234b <_vfprintf_r+0x18fb>
  4022e4:	10c182        	addi	a8, a1, 16
  4022e7:	02d822        	addmi	a2, a8, 0x200
  4022ea:	1a2272        	l32i	a7, a2, 104
  4022ed:	f81c      	movi.n	a8, 31
  4022ef:	574b      	addi.n	a5, a7, 4
  4022f1:	841c      	movi.n	a4, 24
  4022f3:	352867        	blt	a8, a6, 40232c <_vfprintf_r+0x18dc>
  4022f6:	861b      	addi.n	a8, a6, 1
  4022f8:	986182        	s32i	a8, a1, 0x260
  4022fb:	1a6252        	s32i	a5, a2, 104
  4022fe:	062457        	blt	a4, a5, 402308 <_vfprintf_r+0x18b8>
  402301:	192222        	l32i	a2, a2, 100
  402304:	0002c6        	j	402313 <_vfprintf_r+0x18c3>
  402307:	00          	.byte 00
  402308:	042477        	blt	a4, a7, 402310 <_vfprintf_r+0x18c0>
  40230b:	442c      	movi.n	a4, 36
  40230d:	1a6242        	s32i	a4, a2, 104
  402310:	9c2122        	l32i	a2, a1, 0x270
  402313:	9e2142        	l32i	a4, a1, 0x278
  402316:	1166d0        	slli	a6, a6, 3
  402319:	224a      	add.n	a2, a2, a4
  40231b:	fcc222        	addi	a2, a2, -4
  40231e:	0258      	l32i.n	a5, a2, 0
  402320:	10c192        	addi	a9, a1, 16
  402323:	696a      	add.n	a6, a9, a6
  402325:	0659      	s32i.n	a5, a6, 0
  402327:	000886        	j	40234d <_vfprintf_r+0x18fd>
  40232a:	00          	.byte 00
  40232b:	00          	.byte 00
  40232c:	1a6252        	s32i	a5, a2, 104
  40232f:	052457        	blt	a4, a5, 402338 <_vfprintf_r+0x18e8>
  402332:	192222        	l32i	a2, a2, 100
  402335:	000286        	j	402343 <_vfprintf_r+0x18f3>
  402338:	042477        	blt	a4, a7, 402340 <_vfprintf_r+0x18f0>
  40233b:	442c      	movi.n	a4, 36
  40233d:	1a6242        	s32i	a4, a2, 104
  402340:	9c2122        	l32i	a2, a1, 0x270
  402343:	9e2142        	l32i	a4, a1, 0x278
  402346:	224a      	add.n	a2, a2, a4
  402348:	fcc222        	addi	a2, a2, -4
  40234b:	0258      	l32i.n	a5, a2, 0
  40234d:	a12122        	l32i	a2, a1, 0x284
  402350:	270c      	movi.n	a7, 2
  402352:	202270        	or	a2, a2, a7
  402355:	10c142        	addi	a4, a1, 16
  402358:	a16122        	s32i	a2, a1, 0x284
  40235b:	f76581        	l32r	a8, 4000f0 <_init-0x2a0>
  40235e:	02d422        	addmi	a2, a4, 0x200
  402361:	043c      	movi.n	a4, 48
  402363:	544242        	s8i	a4, a2, 84
  402366:	78a092        	movi	a9, 120
  402369:	78a042        	movi	a4, 120
  40236c:	060c      	movi.n	a6, 0
  40236e:	554242        	s8i	a4, a2, 85
  402371:	b76182        	s32i	a8, a1, 0x2dc
  402374:	a86192        	s32i	a9, a1, 0x2a0
  402377:	0201c6        	j	402b82 <_vfprintf_r+0x2132>
  40237a:	982152        	l32i	a5, a1, 0x260
  40237d:	b4bc      	beqz.n	a4, 4023bc <_vfprintf_r+0x196c>
  40237f:	0fa257        	bge	a2, a5, 402392 <_vfprintf_r+0x1942>
  402382:	1122d0        	slli	a2, a2, 3
  402385:	10c1a2        	addi	a10, a1, 16
  402388:	2a2a      	add.n	a2, a10, a2
  40238a:	0228      	l32i.n	a2, a2, 0
  40238c:	a36122        	s32i	a2, a1, 0x28c
  40238f:	002b46        	j	402440 <_vfprintf_r+0x19f0>
  402392:	10c1c2        	addi	a12, a1, 16
  402395:	5ca2b2        	movi	a11, 0x25c
  402398:	50a2d2        	movi	a13, 0x250
  40239b:	0ced      	mov.n	a14, a12
  40239d:	41ba      	add.n	a4, a1, a11
  40239f:	01dcf2        	addmi	a15, a12, 0x100
  4023a2:	dcda      	add.n	a13, a12, a13
  4023a4:	60a2c2        	movi	a12, 0x260
  4023a7:	0149      	s32i.n	a4, a1, 0
  4023a9:	ceca      	add.n	a12, a14, a12
  4023ab:	03bd      	mov.n	a11, a3
  4023ad:	02ad      	mov.n	a10, a2
  4023af:	fe1e25        	call8	400590 <get_arg$isra$0>
  4023b2:	0aa8      	l32i.n	a10, a10, 0
  4023b4:	a361a2        	s32i	a10, a1, 0x28c
  4023b7:	002146        	j	402440 <_vfprintf_r+0x19f0>
  4023ba:	00          	.byte 00
  4023bb:	00          	.byte 00
  4023bc:	9f2132        	l32i	a3, a1, 0x27c
  4023bf:	631b      	addi.n	a6, a3, 1
  4023c1:	0ba357        	bge	a3, a5, 4023d0 <_vfprintf_r+0x1980>
  4023c4:	1122d0        	slli	a2, a2, 3
  4023c7:	10c142        	addi	a4, a1, 16
  4023ca:	242a      	add.n	a2, a4, a2
  4023cc:	001a06        	j	402438 <_vfprintf_r+0x19e8>
  4023cf:	00          	.byte 00
  4023d0:	10c182        	addi	a8, a1, 16
  4023d3:	02d822        	addmi	a2, a8, 0x200
  4023d6:	1a2272        	l32i	a7, a2, 104
  4023d9:	f81c      	movi.n	a8, 31
  4023db:	474b      	addi.n	a4, a7, 4
  4023dd:	831c      	movi.n	a3, 24
  4023df:	362857        	blt	a8, a5, 402419 <_vfprintf_r+0x19c9>
  4023e2:	851b      	addi.n	a8, a5, 1
  4023e4:	986182        	s32i	a8, a1, 0x260
  4023e7:	1a6242        	s32i	a4, a2, 104
  4023ea:	062347        	blt	a3, a4, 4023f4 <_vfprintf_r+0x19a4>
  4023ed:	192222        	l32i	a2, a2, 100
  4023f0:	0002c6        	j	4023ff <_vfprintf_r+0x19af>
  4023f3:	00          	.byte 00
  4023f4:	042377        	blt	a3, a7, 4023fc <_vfprintf_r+0x19ac>
  4023f7:	432c      	movi.n	a3, 36
  4023f9:	1a6232        	s32i	a3, a2, 104
  4023fc:	9c2122        	l32i	a2, a1, 0x270
  4023ff:	9e2132        	l32i	a3, a1, 0x278
  402402:	1155d0        	slli	a5, a5, 3
  402405:	223a      	add.n	a2, a2, a3
  402407:	fcc222        	addi	a2, a2, -4
  40240a:	0228      	l32i.n	a2, a2, 0
  40240c:	10c192        	addi	a9, a1, 16
  40240f:	595a      	add.n	a5, a9, a5
  402411:	a36122        	s32i	a2, a1, 0x28c
  402414:	0529      	s32i.n	a2, a5, 0
  402416:	0008c6        	j	40243d <_vfprintf_r+0x19ed>
  402419:	1a6242        	s32i	a4, a2, 104
  40241c:	052347        	blt	a3, a4, 402425 <_vfprintf_r+0x19d5>
  40241f:	192222        	l32i	a2, a2, 100
  402422:	000286        	j	402430 <_vfprintf_r+0x19e0>
  402425:	042377        	blt	a3, a7, 40242d <_vfprintf_r+0x19dd>
  402428:	432c      	movi.n	a3, 36
  40242a:	1a6232        	s32i	a3, a2, 104
  40242d:	9c2122        	l32i	a2, a1, 0x270
  402430:	9e2132        	l32i	a3, a1, 0x278
  402433:	223a      	add.n	a2, a2, a3
  402435:	fcc222        	addi	a2, a2, -4
  402438:	0228      	l32i.n	a2, a2, 0
  40243a:	a36122        	s32i	a2, a1, 0x28c
  40243d:	9f6162        	s32i	a6, a1, 0x27c
  402440:	10c1a2        	addi	a10, a1, 16
  402443:	02da22        	addmi	a2, a10, 0x200
  402446:	030c      	movi.n	a3, 0
  402448:	564232        	s8i	a3, a2, 86
  40244b:	a52122        	l32i	a2, a1, 0x294
  40244e:	2b0226        	beqi	a2, -1, 40247d <_vfprintf_r+0x1a2d>
  402451:	a321a2        	l32i	a10, a1, 0x28c
  402454:	02cd      	mov.n	a12, a2
  402456:	00a0b2        	movi	a11, 0
  402459:	10fce5        	call8	413428 <memchr>
  40245c:	a661a2        	s32i	a10, a1, 0x298
  40245f:	a62162        	l32i	a6, a1, 0x298
  402462:	1acc      	bnez.n	a10, 402467 <_vfprintf_r+0x1a17>
  402464:	024e86        	j	402da2 <_vfprintf_r+0x2352>
  402467:	a32132        	l32i	a3, a1, 0x28c
  40246a:	040c      	movi.n	a4, 0
  40246c:	c03a30        	sub	a3, a10, a3
  40246f:	a56132        	s32i	a3, a1, 0x294
  402472:	a66142        	s32i	a4, a1, 0x298
  402475:	046d      	mov.n	a6, a4
  402477:	0249c6        	j	402da2 <_vfprintf_r+0x2352>
  40247a:	00          	.byte 00
  40247b:	00          	.byte 00
  40247c:	00          	.byte 00
  40247d:	a321a2        	l32i	a10, a1, 0x28c
  402480:	00a052        	movi	a5, 0
  402483:	05f7e5        	call8	408400 <strlen>
  402486:	a561a2        	s32i	a10, a1, 0x294
  402489:	a66152        	s32i	a5, a1, 0x298
  40248c:	206550        	or	a6, a5, a5
  40248f:	203550        	or	a3, a5, a5
  402492:	024406        	j	402da6 <_vfprintf_r+0x2356>
  402495:	a12162        	l32i	a6, a1, 0x284
  402498:	051c      	movi.n	a5, 16
  40249a:	206650        	or	a6, a6, a5
  40249d:	a16162        	s32i	a6, a1, 0x284
  4024a0:	a12182        	l32i	a8, a1, 0x284
  4024a3:	982172        	l32i	a7, a1, 0x260
  4024a6:	02e857        	bbsi	a8, 5, 4024ac <_vfprintf_r+0x1a5c>
  4024a9:	0032c6        	j	402578 <_vfprintf_r+0x1b28>
  4024ac:	c4bc      	beqz.n	a4, 4024ec <_vfprintf_r+0x1a9c>
  4024ae:	0ea277        	bge	a2, a7, 4024c0 <_vfprintf_r+0x1a70>
  4024b1:	1122d0        	slli	a2, a2, 3
  4024b4:	10c192        	addi	a9, a1, 16
  4024b7:	292a      	add.n	a2, a9, a2
  4024b9:	0258      	l32i.n	a5, a2, 0
  4024bb:	1268      	l32i.n	a6, a2, 4
  4024bd:	0008c6        	j	4024e4 <_vfprintf_r+0x1a94>
  4024c0:	5ca2a2        	movi	a10, 0x25c
  4024c3:	10c1b2        	addi	a11, a1, 16
  4024c6:	41aa      	add.n	a4, a1, a10
  4024c8:	50a2d2        	movi	a13, 0x250
  4024cb:	60a2c2        	movi	a12, 0x260
  4024ce:	01dbf2        	addmi	a15, a11, 0x100
  4024d1:	0bed      	mov.n	a14, a11
  4024d3:	dbda      	add.n	a13, a11, a13
  4024d5:	cbca      	add.n	a12, a11, a12
  4024d7:	0149      	s32i.n	a4, a1, 0
  4024d9:	03bd      	mov.n	a11, a3
  4024db:	02ad      	mov.n	a10, a2
  4024dd:	fe0b25        	call8	400590 <get_arg$isra$0>
  4024e0:	0a58      	l32i.n	a5, a10, 0
  4024e2:	1a68      	l32i.n	a6, a10, 4
  4024e4:	9f2132        	l32i	a3, a1, 0x27c
  4024e7:	009186        	j	402731 <_vfprintf_r+0x1ce1>
  4024ea:	00          	.byte 00
  4024eb:	00          	.byte 00
  4024ec:	9f2142        	l32i	a4, a1, 0x27c
  4024ef:	341b      	addi.n	a3, a4, 1
  4024f1:	0ba477        	bge	a4, a7, 402500 <_vfprintf_r+0x1ab0>
  4024f4:	1122d0        	slli	a2, a2, 3
  4024f7:	10c152        	addi	a5, a1, 16
  4024fa:	252a      	add.n	a2, a5, a2
  4024fc:	001bc6        	j	40256f <_vfprintf_r+0x1b1f>
  4024ff:	00          	.byte 00
  402500:	10c162        	addi	a6, a1, 16
  402503:	02d622        	addmi	a2, a6, 0x200
  402506:	1a2242        	l32i	a4, a2, 104
  402509:	857c      	movi.n	a5, -8
  40250b:	447b      	addi.n	a4, a4, 7
  40250d:	104450        	and	a4, a4, a5
  402510:	f81c      	movi.n	a8, 31
  402512:	648b      	addi.n	a6, a4, 8
  402514:	851c      	movi.n	a5, 24
  402516:	362877        	blt	a8, a7, 402550 <_vfprintf_r+0x1b00>
  402519:	871b      	addi.n	a8, a7, 1
  40251b:	986182        	s32i	a8, a1, 0x260
  40251e:	1a6262        	s32i	a6, a2, 104
  402521:	052567        	blt	a5, a6, 40252a <_vfprintf_r+0x1ada>
  402524:	192222        	l32i	a2, a2, 100
  402527:	000286        	j	402535 <_vfprintf_r+0x1ae5>
  40252a:	042547        	blt	a5, a4, 402532 <_vfprintf_r+0x1ae2>
  40252d:	842c      	movi.n	a4, 40
  40252f:	1a6242        	s32i	a4, a2, 104
  402532:	9c2122        	l32i	a2, a1, 0x270
  402535:	9e2142        	l32i	a4, a1, 0x278
  402538:	1177d0        	slli	a7, a7, 3
  40253b:	224a      	add.n	a2, a2, a4
  40253d:	f8c222        	addi	a2, a2, -8
  402540:	0258      	l32i.n	a5, a2, 0
  402542:	1268      	l32i.n	a6, a2, 4
  402544:	10c182        	addi	a8, a1, 16
  402547:	787a      	add.n	a7, a8, a7
  402549:	0759      	s32i.n	a5, a7, 0
  40254b:	1769      	s32i.n	a6, a7, 4
  40254d:	007806        	j	402731 <_vfprintf_r+0x1ce1>
  402550:	1a6262        	s32i	a6, a2, 104
  402553:	052567        	blt	a5, a6, 40255c <_vfprintf_r+0x1b0c>
  402556:	192222        	l32i	a2, a2, 100
  402559:	000286        	j	402567 <_vfprintf_r+0x1b17>
  40255c:	042547        	blt	a5, a4, 402564 <_vfprintf_r+0x1b14>
  40255f:	842c      	movi.n	a4, 40
  402561:	1a6242        	s32i	a4, a2, 104
  402564:	9c2122        	l32i	a2, a1, 0x270
  402567:	9e2142        	l32i	a4, a1, 0x278
  40256a:	224a      	add.n	a2, a2, a4
  40256c:	f8c222        	addi	a2, a2, -8
  40256f:	0258      	l32i.n	a5, a2, 0
  402571:	1268      	l32i.n	a6, a2, 4
  402573:	006e86        	j	402731 <_vfprintf_r+0x1ce1>
  402576:	00          	.byte 00
  402577:	00          	.byte 00
  402578:	a12192        	l32i	a9, a1, 0x284
  40257b:	266947        	bbci	a9, 4, 4025a5 <_vfprintf_r+0x1b55>
  40257e:	1ee416        	beqz	a4, 402770 <_vfprintf_r+0x1d20>
  402581:	0ba277        	bge	a2, a7, 402590 <_vfprintf_r+0x1b40>
  402584:	1122d0        	slli	a2, a2, 3
  402587:	10c1a2        	addi	a10, a1, 16
  40258a:	2a2a      	add.n	a2, a10, a2
  40258c:	006cc6        	j	402743 <_vfprintf_r+0x1cf3>
  40258f:	00          	.byte 00
  402590:	5ca2b2        	movi	a11, 0x25c
  402593:	10c1c2        	addi	a12, a1, 16
  402596:	41ba      	add.n	a4, a1, a11
  402598:	0149      	s32i.n	a4, a1, 0
  40259a:	01dcf2        	addmi	a15, a12, 0x100
  40259d:	50a2d2        	movi	a13, 0x250
  4025a0:	0ced      	mov.n	a14, a12
  4025a2:	006d06        	j	40275a <_vfprintf_r+0x1d0a>
  4025a5:	a12192        	l32i	a9, a1, 0x284
  4025a8:	02e967        	bbsi	a9, 6, 4025ae <_vfprintf_r+0x1b5e>
  4025ab:	002f46        	j	40266c <_vfprintf_r+0x1c1c>
  4025ae:	64bc      	beqz.n	a4, 4025e8 <_vfprintf_r+0x1b98>
  4025b0:	0da277        	bge	a2, a7, 4025c1 <_vfprintf_r+0x1b71>
  4025b3:	1122d0        	slli	a2, a2, 3
  4025b6:	10c1a2        	addi	a10, a1, 16
  4025b9:	2a2a      	add.n	a2, a10, a2
  4025bb:	001252        	l16ui	a5, a2, 0
  4025be:	006a06        	j	40276a <_vfprintf_r+0x1d1a>
  4025c1:	10c1c2        	addi	a12, a1, 16
  4025c4:	5ca2b2        	movi	a11, 0x25c
  4025c7:	50a2d2        	movi	a13, 0x250
  4025ca:	0ced      	mov.n	a14, a12
  4025cc:	41ba      	add.n	a4, a1, a11
  4025ce:	01dcf2        	addmi	a15, a12, 0x100
  4025d1:	dcda      	add.n	a13, a12, a13
  4025d3:	60a2c2        	movi	a12, 0x260
  4025d6:	0149      	s32i.n	a4, a1, 0
  4025d8:	ceca      	add.n	a12, a14, a12
  4025da:	03bd      	mov.n	a11, a3
  4025dc:	02ad      	mov.n	a10, a2
  4025de:	fdfb25        	call8	400590 <get_arg$isra$0>
  4025e1:	001a52        	l16ui	a5, a10, 0
  4025e4:	006086        	j	40276a <_vfprintf_r+0x1d1a>
  4025e7:	00          	.byte 00
  4025e8:	9f2142        	l32i	a4, a1, 0x27c
  4025eb:	341b      	addi.n	a3, a4, 1
  4025ed:	0ba477        	bge	a4, a7, 4025fc <_vfprintf_r+0x1bac>
  4025f0:	1122d0        	slli	a2, a2, 3
  4025f3:	10c152        	addi	a5, a1, 16
  4025f6:	252a      	add.n	a2, a5, a2
  4025f8:	001a06        	j	402664 <_vfprintf_r+0x1c14>
  4025fb:	00          	.byte 00
  4025fc:	10c162        	addi	a6, a1, 16
  4025ff:	02d622        	addmi	a2, a6, 0x200
  402602:	1a2262        	l32i	a6, a2, 104
  402605:	f81c      	movi.n	a8, 31
  402607:	564b      	addi.n	a5, a6, 4
  402609:	841c      	movi.n	a4, 24
  40260b:	362877        	blt	a8, a7, 402645 <_vfprintf_r+0x1bf5>
  40260e:	871b      	addi.n	a8, a7, 1
  402610:	986182        	s32i	a8, a1, 0x260
  402613:	1a6252        	s32i	a5, a2, 104
  402616:	062457        	blt	a4, a5, 402620 <_vfprintf_r+0x1bd0>
  402619:	192222        	l32i	a2, a2, 100
  40261c:	0002c6        	j	40262b <_vfprintf_r+0x1bdb>
  40261f:	00          	.byte 00
  402620:	042467        	blt	a4, a6, 402628 <_vfprintf_r+0x1bd8>
  402623:	442c      	movi.n	a4, 36
  402625:	1a6242        	s32i	a4, a2, 104
  402628:	9c2122        	l32i	a2, a1, 0x270
  40262b:	9e2142        	l32i	a4, a1, 0x278
  40262e:	1177d0        	slli	a7, a7, 3
  402631:	224a      	add.n	a2, a2, a4
  402633:	fcc222        	addi	a2, a2, -4
  402636:	0258      	l32i.n	a5, a2, 0
  402638:	10c182        	addi	a8, a1, 16
  40263b:	787a      	add.n	a7, a8, a7
  40263d:	0759      	s32i.n	a5, a7, 0
  40263f:	f45050        	extui	a5, a5, 0, 16
  402642:	003a46        	j	40272f <_vfprintf_r+0x1cdf>
  402645:	1a6252        	s32i	a5, a2, 104
  402648:	052457        	blt	a4, a5, 402651 <_vfprintf_r+0x1c01>
  40264b:	192222        	l32i	a2, a2, 100
  40264e:	000286        	j	40265c <_vfprintf_r+0x1c0c>
  402651:	042467        	blt	a4, a6, 402659 <_vfprintf_r+0x1c09>
  402654:	442c      	movi.n	a4, 36
  402656:	1a6242        	s32i	a4, a2, 104
  402659:	9c2122        	l32i	a2, a1, 0x270
  40265c:	9e2142        	l32i	a4, a1, 0x278
  40265f:	224a      	add.n	a2, a2, a4
  402661:	fcc222        	addi	a2, a2, -4
  402664:	001252        	l16ui	a5, a2, 0
  402667:	003106        	j	40272f <_vfprintf_r+0x1cdf>
  40266a:	00          	.byte 00
  40266b:	00          	.byte 00
  40266c:	a12192        	l32i	a9, a1, 0x284
  40266f:	02e997        	bbsi	a9, 9, 402675 <_vfprintf_r+0x1c25>
  402672:	003006        	j	402736 <_vfprintf_r+0x1ce6>
  402675:	74bc      	beqz.n	a4, 4026b0 <_vfprintf_r+0x1c60>
  402677:	0da277        	bge	a2, a7, 402688 <_vfprintf_r+0x1c38>
  40267a:	1122d0        	slli	a2, a2, 3
  40267d:	10c1a2        	addi	a10, a1, 16
  402680:	2a2a      	add.n	a2, a10, a2
  402682:	000252        	l8ui	a5, a2, 0
  402685:	003846        	j	40276a <_vfprintf_r+0x1d1a>
  402688:	10c1c2        	addi	a12, a1, 16
  40268b:	5ca2b2        	movi	a11, 0x25c
  40268e:	50a2d2        	movi	a13, 0x250
  402691:	0ced      	mov.n	a14, a12
  402693:	41ba      	add.n	a4, a1, a11
  402695:	01dcf2        	addmi	a15, a12, 0x100
  402698:	dcda      	add.n	a13, a12, a13
  40269a:	60a2c2        	movi	a12, 0x260
  40269d:	0149      	s32i.n	a4, a1, 0
  40269f:	ceca      	add.n	a12, a14, a12
  4026a1:	03bd      	mov.n	a11, a3
  4026a3:	02ad      	mov.n	a10, a2
  4026a5:	fdeea5        	call8	400590 <get_arg$isra$0>
  4026a8:	000a52        	l8ui	a5, a10, 0
  4026ab:	002ec6        	j	40276a <_vfprintf_r+0x1d1a>
  4026ae:	00          	.byte 00
  4026af:	00          	.byte 00
  4026b0:	9f2142        	l32i	a4, a1, 0x27c
  4026b3:	341b      	addi.n	a3, a4, 1
  4026b5:	0ba477        	bge	a4, a7, 4026c4 <_vfprintf_r+0x1c74>
  4026b8:	1122d0        	slli	a2, a2, 3
  4026bb:	10c152        	addi	a5, a1, 16
  4026be:	252a      	add.n	a2, a5, a2
  4026c0:	001a06        	j	40272c <_vfprintf_r+0x1cdc>
  4026c3:	00          	.byte 00
  4026c4:	10c162        	addi	a6, a1, 16
  4026c7:	02d622        	addmi	a2, a6, 0x200
  4026ca:	1a2262        	l32i	a6, a2, 104
  4026cd:	f81c      	movi.n	a8, 31
  4026cf:	564b      	addi.n	a5, a6, 4
  4026d1:	841c      	movi.n	a4, 24
  4026d3:	362877        	blt	a8, a7, 40270d <_vfprintf_r+0x1cbd>
  4026d6:	871b      	addi.n	a8, a7, 1
  4026d8:	986182        	s32i	a8, a1, 0x260
  4026db:	1a6252        	s32i	a5, a2, 104
  4026de:	062457        	blt	a4, a5, 4026e8 <_vfprintf_r+0x1c98>
  4026e1:	192222        	l32i	a2, a2, 100
  4026e4:	0002c6        	j	4026f3 <_vfprintf_r+0x1ca3>
  4026e7:	00          	.byte 00
  4026e8:	042467        	blt	a4, a6, 4026f0 <_vfprintf_r+0x1ca0>
  4026eb:	442c      	movi.n	a4, 36
  4026ed:	1a6242        	s32i	a4, a2, 104
  4026f0:	9c2122        	l32i	a2, a1, 0x270
  4026f3:	9e2142        	l32i	a4, a1, 0x278
  4026f6:	1177d0        	slli	a7, a7, 3
  4026f9:	224a      	add.n	a2, a2, a4
  4026fb:	fcc222        	addi	a2, a2, -4
  4026fe:	0258      	l32i.n	a5, a2, 0
  402700:	10c182        	addi	a8, a1, 16
  402703:	787a      	add.n	a7, a8, a7
  402705:	0759      	s32i.n	a5, a7, 0
  402707:	745050        	extui	a5, a5, 0, 8
  40270a:	000846        	j	40272f <_vfprintf_r+0x1cdf>
  40270d:	1a6252        	s32i	a5, a2, 104
  402710:	052457        	blt	a4, a5, 402719 <_vfprintf_r+0x1cc9>
  402713:	192222        	l32i	a2, a2, 100
  402716:	000286        	j	402724 <_vfprintf_r+0x1cd4>
  402719:	042467        	blt	a4, a6, 402721 <_vfprintf_r+0x1cd1>
  40271c:	442c      	movi.n	a4, 36
  40271e:	1a6242        	s32i	a4, a2, 104
  402721:	9c2122        	l32i	a2, a1, 0x270
  402724:	9e2142        	l32i	a4, a1, 0x278
  402727:	224a      	add.n	a2, a2, a4
  402729:	fcc222        	addi	a2, a2, -4
  40272c:	000252        	l8ui	a5, a2, 0
  40272f:	060c      	movi.n	a6, 0
  402731:	170c      	movi.n	a7, 1
  402733:	0112c6        	j	402b82 <_vfprintf_r+0x2132>
  402736:	64bc      	beqz.n	a4, 402770 <_vfprintf_r+0x1d20>
  402738:	0ca277        	bge	a2, a7, 402748 <_vfprintf_r+0x1cf8>
  40273b:	1122d0        	slli	a2, a2, 3
  40273e:	10c192        	addi	a9, a1, 16
  402741:	292a      	add.n	a2, a9, a2
  402743:	0258      	l32i.n	a5, a2, 0
  402745:	000846        	j	40276a <_vfprintf_r+0x1d1a>
  402748:	5ca2a2        	movi	a10, 0x25c
  40274b:	10c1b2        	addi	a11, a1, 16
  40274e:	41aa      	add.n	a4, a1, a10
  402750:	0149      	s32i.n	a4, a1, 0
  402752:	01dbf2        	addmi	a15, a11, 0x100
  402755:	50a2d2        	movi	a13, 0x250
  402758:	0bed      	mov.n	a14, a11
  40275a:	60a2c2        	movi	a12, 0x260
  40275d:	deda      	add.n	a13, a14, a13
  40275f:	ceca      	add.n	a12, a14, a12
  402761:	03bd      	mov.n	a11, a3
  402763:	02ad      	mov.n	a10, a2
  402765:	fde2a5        	call8	400590 <get_arg$isra$0>
  402768:	0a58      	l32i.n	a5, a10, 0
  40276a:	9f2132        	l32i	a3, a1, 0x27c
  40276d:	ffef86        	j	40272f <_vfprintf_r+0x1cdf>
  402770:	9f2142        	l32i	a4, a1, 0x27c
  402773:	341b      	addi.n	a3, a4, 1
  402775:	0aa477        	bge	a4, a7, 402783 <_vfprintf_r+0x1d33>
  402778:	1122d0        	slli	a2, a2, 3
  40277b:	10c152        	addi	a5, a1, 16
  40277e:	252a      	add.n	a2, a5, a2
  402780:	0019c6        	j	4027eb <_vfprintf_r+0x1d9b>
  402783:	10c162        	addi	a6, a1, 16
  402786:	02d622        	addmi	a2, a6, 0x200
  402789:	1a2262        	l32i	a6, a2, 104
  40278c:	f81c      	movi.n	a8, 31
  40278e:	564b      	addi.n	a5, a6, 4
  402790:	841c      	movi.n	a4, 24
  402792:	362877        	blt	a8, a7, 4027cc <_vfprintf_r+0x1d7c>
  402795:	871b      	addi.n	a8, a7, 1
  402797:	986182        	s32i	a8, a1, 0x260
  40279a:	1a6252        	s32i	a5, a2, 104
  40279d:	072457        	blt	a4, a5, 4027a8 <_vfprintf_r+0x1d58>
  4027a0:	192222        	l32i	a2, a2, 100
  4027a3:	000306        	j	4027b3 <_vfprintf_r+0x1d63>
  4027a6:	00          	.byte 00
  4027a7:	00          	.byte 00
  4027a8:	042467        	blt	a4, a6, 4027b0 <_vfprintf_r+0x1d60>
  4027ab:	442c      	movi.n	a4, 36
  4027ad:	1a6242        	s32i	a4, a2, 104
  4027b0:	9c2122        	l32i	a2, a1, 0x270
  4027b3:	9e2142        	l32i	a4, a1, 0x278
  4027b6:	1177d0        	slli	a7, a7, 3
  4027b9:	224a      	add.n	a2, a2, a4
  4027bb:	fcc222        	addi	a2, a2, -4
  4027be:	0258      	l32i.n	a5, a2, 0
  4027c0:	10c182        	addi	a8, a1, 16
  4027c3:	787a      	add.n	a7, a8, a7
  4027c5:	0759      	s32i.n	a5, a7, 0
  4027c7:	ffd906        	j	40272f <_vfprintf_r+0x1cdf>
  4027ca:	00          	.byte 00
  4027cb:	00          	.byte 00
  4027cc:	1a6252        	s32i	a5, a2, 104
  4027cf:	052457        	blt	a4, a5, 4027d8 <_vfprintf_r+0x1d88>
  4027d2:	192222        	l32i	a2, a2, 100
  4027d5:	000286        	j	4027e3 <_vfprintf_r+0x1d93>
  4027d8:	042467        	blt	a4, a6, 4027e0 <_vfprintf_r+0x1d90>
  4027db:	442c      	movi.n	a4, 36
  4027dd:	1a6242        	s32i	a4, a2, 104
  4027e0:	9c2122        	l32i	a2, a1, 0x270
  4027e3:	9e2142        	l32i	a4, a1, 0x278
  4027e6:	224a      	add.n	a2, a2, a4
  4027e8:	fcc222        	addi	a2, a2, -4
  4027eb:	0258      	l32i.n	a5, a2, 0
  4027ed:	ffcf86        	j	40272f <_vfprintf_r+0x1cdf>
  4027f0:	00          	.byte 00
  4027f1:	f64091        	l32r	a9, 4000f4 <_init-0x29c>
  4027f4:	b76192        	s32i	a9, a1, 0x2dc
  4027f7:	000146        	j	402800 <_vfprintf_r+0x1db0>
  4027fa:	f63d51        	l32r	a5, 4000f0 <_init-0x2a0>
  4027fd:	b76152        	s32i	a5, a1, 0x2dc
  402800:	a12162        	l32i	a6, a1, 0x284
  402803:	982172        	l32i	a7, a1, 0x260
  402806:	02e657        	bbsi	a6, 5, 40280c <_vfprintf_r+0x1dbc>
  402809:	0033c6        	j	4028dc <_vfprintf_r+0x1e8c>
  40280c:	c4bc      	beqz.n	a4, 40284c <_vfprintf_r+0x1dfc>
  40280e:	0ea277        	bge	a2, a7, 402820 <_vfprintf_r+0x1dd0>
  402811:	1122d0        	slli	a2, a2, 3
  402814:	10c182        	addi	a8, a1, 16
  402817:	282a      	add.n	a2, a8, a2
  402819:	0258      	l32i.n	a5, a2, 0
  40281b:	1268      	l32i.n	a6, a2, 4
  40281d:	0008c6        	j	402844 <_vfprintf_r+0x1df4>
  402820:	5ca292        	movi	a9, 0x25c
  402823:	10c1a2        	addi	a10, a1, 16
  402826:	419a      	add.n	a4, a1, a9
  402828:	50a2d2        	movi	a13, 0x250
  40282b:	60a2c2        	movi	a12, 0x260
  40282e:	01daf2        	addmi	a15, a10, 0x100
  402831:	0aed      	mov.n	a14, a10
  402833:	dada      	add.n	a13, a10, a13
  402835:	caca      	add.n	a12, a10, a12
  402837:	0149      	s32i.n	a4, a1, 0
  402839:	03bd      	mov.n	a11, a3
  40283b:	02ad      	mov.n	a10, a2
  40283d:	fdd525        	call8	400590 <get_arg$isra$0>
  402840:	0a58      	l32i.n	a5, a10, 0
  402842:	1a68      	l32i.n	a6, a10, 4
  402844:	9f2132        	l32i	a3, a1, 0x27c
  402847:	00c146        	j	402b50 <_vfprintf_r+0x2100>
  40284a:	00          	.byte 00
  40284b:	00          	.byte 00
  40284c:	9f2142        	l32i	a4, a1, 0x27c
  40284f:	341b      	addi.n	a3, a4, 1
  402851:	0ba477        	bge	a4, a7, 402860 <_vfprintf_r+0x1e10>
  402854:	1122d0        	slli	a2, a2, 3
  402857:	10c152        	addi	a5, a1, 16
  40285a:	252a      	add.n	a2, a5, a2
  40285c:	001cc6        	j	4028d3 <_vfprintf_r+0x1e83>
  40285f:	00          	.byte 00
  402860:	10c162        	addi	a6, a1, 16
  402863:	02d622        	addmi	a2, a6, 0x200
  402866:	1a2242        	l32i	a4, a2, 104
  402869:	857c      	movi.n	a5, -8
  40286b:	447b      	addi.n	a4, a4, 7
  40286d:	104450        	and	a4, a4, a5
  402870:	f81c      	movi.n	a8, 31
  402872:	648b      	addi.n	a6, a4, 8
  402874:	851c      	movi.n	a5, 24
  402876:	3a2877        	blt	a8, a7, 4028b4 <_vfprintf_r+0x1e64>
  402879:	871b      	addi.n	a8, a7, 1
  40287b:	986182        	s32i	a8, a1, 0x260
  40287e:	1a6262        	s32i	a6, a2, 104
  402881:	072567        	blt	a5, a6, 40288c <_vfprintf_r+0x1e3c>
  402884:	192222        	l32i	a2, a2, 100
  402887:	000306        	j	402897 <_vfprintf_r+0x1e47>
  40288a:	00          	.byte 00
  40288b:	00          	.byte 00
  40288c:	042547        	blt	a5, a4, 402894 <_vfprintf_r+0x1e44>
  40288f:	842c      	movi.n	a4, 40
  402891:	1a6242        	s32i	a4, a2, 104
  402894:	9c2122        	l32i	a2, a1, 0x270
  402897:	9e2142        	l32i	a4, a1, 0x278
  40289a:	1177d0        	slli	a7, a7, 3
  40289d:	224a      	add.n	a2, a2, a4
  40289f:	f8c222        	addi	a2, a2, -8
  4028a2:	0258      	l32i.n	a5, a2, 0
  4028a4:	1268      	l32i.n	a6, a2, 4
  4028a6:	10c182        	addi	a8, a1, 16
  4028a9:	787a      	add.n	a7, a8, a7
  4028ab:	0759      	s32i.n	a5, a7, 0
  4028ad:	1769      	s32i.n	a6, a7, 4
  4028af:	00a746        	j	402b50 <_vfprintf_r+0x2100>
  4028b2:	00          	.byte 00
  4028b3:	00          	.byte 00
  4028b4:	1a6262        	s32i	a6, a2, 104
  4028b7:	052567        	blt	a5, a6, 4028c0 <_vfprintf_r+0x1e70>
  4028ba:	192222        	l32i	a2, a2, 100
  4028bd:	000286        	j	4028cb <_vfprintf_r+0x1e7b>
  4028c0:	042547        	blt	a5, a4, 4028c8 <_vfprintf_r+0x1e78>
  4028c3:	842c      	movi.n	a4, 40
  4028c5:	1a6242        	s32i	a4, a2, 104
  4028c8:	9c2122        	l32i	a2, a1, 0x270
  4028cb:	9e2142        	l32i	a4, a1, 0x278
  4028ce:	224a      	add.n	a2, a2, a4
  4028d0:	f8c222        	addi	a2, a2, -8
  4028d3:	0258      	l32i.n	a5, a2, 0
  4028d5:	1268      	l32i.n	a6, a2, 4
  4028d7:	009d46        	j	402b50 <_vfprintf_r+0x2100>
  4028da:	00          	.byte 00
  4028db:	00          	.byte 00
  4028dc:	a12192        	l32i	a9, a1, 0x284
  4028df:	266947        	bbci	a9, 4, 402909 <_vfprintf_r+0x1eb9>
  4028e2:	1ea416        	beqz	a4, 402ad0 <_vfprintf_r+0x2080>
  4028e5:	0ba277        	bge	a2, a7, 4028f4 <_vfprintf_r+0x1ea4>
  4028e8:	1122d0        	slli	a2, a2, 3
  4028eb:	10c1a2        	addi	a10, a1, 16
  4028ee:	2a2a      	add.n	a2, a10, a2
  4028f0:	006bc6        	j	402aa3 <_vfprintf_r+0x2053>
  4028f3:	00          	.byte 00
  4028f4:	5ca2b2        	movi	a11, 0x25c
  4028f7:	10c1c2        	addi	a12, a1, 16
  4028fa:	41ba      	add.n	a4, a1, a11
  4028fc:	0149      	s32i.n	a4, a1, 0
  4028fe:	01dcf2        	addmi	a15, a12, 0x100
  402901:	50a2d2        	movi	a13, 0x250
  402904:	0ced      	mov.n	a14, a12
  402906:	006c06        	j	402aba <_vfprintf_r+0x206a>
  402909:	a12192        	l32i	a9, a1, 0x284
  40290c:	02e967        	bbsi	a9, 6, 402912 <_vfprintf_r+0x1ec2>
  40290f:	002f46        	j	4029d0 <_vfprintf_r+0x1f80>
  402912:	64bc      	beqz.n	a4, 40294c <_vfprintf_r+0x1efc>
  402914:	0da277        	bge	a2, a7, 402925 <_vfprintf_r+0x1ed5>
  402917:	1122d0        	slli	a2, a2, 3
  40291a:	10c1a2        	addi	a10, a1, 16
  40291d:	2a2a      	add.n	a2, a10, a2
  40291f:	001252        	l16ui	a5, a2, 0
  402922:	006906        	j	402aca <_vfprintf_r+0x207a>
  402925:	10c1c2        	addi	a12, a1, 16
  402928:	5ca2b2        	movi	a11, 0x25c
  40292b:	50a2d2        	movi	a13, 0x250
  40292e:	0ced      	mov.n	a14, a12
  402930:	41ba      	add.n	a4, a1, a11
  402932:	01dcf2        	addmi	a15, a12, 0x100
  402935:	dcda      	add.n	a13, a12, a13
  402937:	60a2c2        	movi	a12, 0x260
  40293a:	0149      	s32i.n	a4, a1, 0
  40293c:	ceca      	add.n	a12, a14, a12
  40293e:	03bd      	mov.n	a11, a3
  402940:	02ad      	mov.n	a10, a2
  402942:	fdc4e5        	call8	400590 <get_arg$isra$0>
  402945:	001a52        	l16ui	a5, a10, 0
  402948:	005f86        	j	402aca <_vfprintf_r+0x207a>
  40294b:	00          	.byte 00
  40294c:	9f2142        	l32i	a4, a1, 0x27c
  40294f:	341b      	addi.n	a3, a4, 1
  402951:	0ba477        	bge	a4, a7, 402960 <_vfprintf_r+0x1f10>
  402954:	1122d0        	slli	a2, a2, 3
  402957:	10c152        	addi	a5, a1, 16
  40295a:	252a      	add.n	a2, a5, a2
  40295c:	001a06        	j	4029c8 <_vfprintf_r+0x1f78>
  40295f:	00          	.byte 00
  402960:	10c162        	addi	a6, a1, 16
  402963:	02d622        	addmi	a2, a6, 0x200
  402966:	1a2262        	l32i	a6, a2, 104
  402969:	f81c      	movi.n	a8, 31
  40296b:	564b      	addi.n	a5, a6, 4
  40296d:	841c      	movi.n	a4, 24
  40296f:	362877        	blt	a8, a7, 4029a9 <_vfprintf_r+0x1f59>
  402972:	871b      	addi.n	a8, a7, 1
  402974:	986182        	s32i	a8, a1, 0x260
  402977:	1a6252        	s32i	a5, a2, 104
  40297a:	062457        	blt	a4, a5, 402984 <_vfprintf_r+0x1f34>
  40297d:	192222        	l32i	a2, a2, 100
  402980:	0002c6        	j	40298f <_vfprintf_r+0x1f3f>
  402983:	00          	.byte 00
  402984:	042467        	blt	a4, a6, 40298c <_vfprintf_r+0x1f3c>
  402987:	442c      	movi.n	a4, 36
  402989:	1a6242        	s32i	a4, a2, 104
  40298c:	9c2122        	l32i	a2, a1, 0x270
  40298f:	9e2142        	l32i	a4, a1, 0x278
  402992:	1177d0        	slli	a7, a7, 3
  402995:	224a      	add.n	a2, a2, a4
  402997:	fcc222        	addi	a2, a2, -4
  40299a:	0258      	l32i.n	a5, a2, 0
  40299c:	10c182        	addi	a8, a1, 16
  40299f:	787a      	add.n	a7, a8, a7
  4029a1:	0759      	s32i.n	a5, a7, 0
  4029a3:	f45050        	extui	a5, a5, 0, 16
  4029a6:	006906        	j	402b4e <_vfprintf_r+0x20fe>
  4029a9:	1a6252        	s32i	a5, a2, 104
  4029ac:	052457        	blt	a4, a5, 4029b5 <_vfprintf_r+0x1f65>
  4029af:	192222        	l32i	a2, a2, 100
  4029b2:	000286        	j	4029c0 <_vfprintf_r+0x1f70>
  4029b5:	042467        	blt	a4, a6, 4029bd <_vfprintf_r+0x1f6d>
  4029b8:	442c      	movi.n	a4, 36
  4029ba:	1a6242        	s32i	a4, a2, 104
  4029bd:	9c2122        	l32i	a2, a1, 0x270
  4029c0:	9e2142        	l32i	a4, a1, 0x278
  4029c3:	224a      	add.n	a2, a2, a4
  4029c5:	fcc222        	addi	a2, a2, -4
  4029c8:	001252        	l16ui	a5, a2, 0
  4029cb:	005fc6        	j	402b4e <_vfprintf_r+0x20fe>
  4029ce:	00          	.byte 00
  4029cf:	00          	.byte 00
  4029d0:	a12192        	l32i	a9, a1, 0x284
  4029d3:	02e997        	bbsi	a9, 9, 4029d9 <_vfprintf_r+0x1f89>
  4029d6:	002f06        	j	402a96 <_vfprintf_r+0x2046>
  4029d9:	74bc      	beqz.n	a4, 402a14 <_vfprintf_r+0x1fc4>
  4029db:	0da277        	bge	a2, a7, 4029ec <_vfprintf_r+0x1f9c>
  4029de:	1122d0        	slli	a2, a2, 3
  4029e1:	10c1a2        	addi	a10, a1, 16
  4029e4:	2a2a      	add.n	a2, a10, a2
  4029e6:	000252        	l8ui	a5, a2, 0
  4029e9:	003746        	j	402aca <_vfprintf_r+0x207a>
  4029ec:	10c1c2        	addi	a12, a1, 16
  4029ef:	5ca2b2        	movi	a11, 0x25c
  4029f2:	50a2d2        	movi	a13, 0x250
  4029f5:	0ced      	mov.n	a14, a12
  4029f7:	41ba      	add.n	a4, a1, a11
  4029f9:	01dcf2        	addmi	a15, a12, 0x100
  4029fc:	dcda      	add.n	a13, a12, a13
  4029fe:	60a2c2        	movi	a12, 0x260
  402a01:	0149      	s32i.n	a4, a1, 0
  402a03:	ceca      	add.n	a12, a14, a12
  402a05:	03bd      	mov.n	a11, a3
  402a07:	02ad      	mov.n	a10, a2
  402a09:	fdb865        	call8	400590 <get_arg$isra$0>
  402a0c:	000a52        	l8ui	a5, a10, 0
  402a0f:	002dc6        	j	402aca <_vfprintf_r+0x207a>
  402a12:	00          	.byte 00
  402a13:	00          	.byte 00
  402a14:	9f2142        	l32i	a4, a1, 0x27c
  402a17:	341b      	addi.n	a3, a4, 1
  402a19:	0ba477        	bge	a4, a7, 402a28 <_vfprintf_r+0x1fd8>
  402a1c:	1122d0        	slli	a2, a2, 3
  402a1f:	10c152        	addi	a5, a1, 16
  402a22:	252a      	add.n	a2, a5, a2
  402a24:	001a06        	j	402a90 <_vfprintf_r+0x2040>
  402a27:	00          	.byte 00
  402a28:	10c162        	addi	a6, a1, 16
  402a2b:	02d622        	addmi	a2, a6, 0x200
  402a2e:	1a2262        	l32i	a6, a2, 104
  402a31:	f81c      	movi.n	a8, 31
  402a33:	564b      	addi.n	a5, a6, 4
  402a35:	841c      	movi.n	a4, 24
  402a37:	362877        	blt	a8, a7, 402a71 <_vfprintf_r+0x2021>
  402a3a:	871b      	addi.n	a8, a7, 1
  402a3c:	986182        	s32i	a8, a1, 0x260
  402a3f:	1a6252        	s32i	a5, a2, 104
  402a42:	062457        	blt	a4, a5, 402a4c <_vfprintf_r+0x1ffc>
  402a45:	192222        	l32i	a2, a2, 100
  402a48:	0002c6        	j	402a57 <_vfprintf_r+0x2007>
  402a4b:	00          	.byte 00
  402a4c:	042467        	blt	a4, a6, 402a54 <_vfprintf_r+0x2004>
  402a4f:	442c      	movi.n	a4, 36
  402a51:	1a6242        	s32i	a4, a2, 104
  402a54:	9c2122        	l32i	a2, a1, 0x270
  402a57:	9e2142        	l32i	a4, a1, 0x278
  402a5a:	1177d0        	slli	a7, a7, 3
  402a5d:	224a      	add.n	a2, a2, a4
  402a5f:	fcc222        	addi	a2, a2, -4
  402a62:	0258      	l32i.n	a5, a2, 0
  402a64:	10c182        	addi	a8, a1, 16
  402a67:	787a      	add.n	a7, a8, a7
  402a69:	0759      	s32i.n	a5, a7, 0
  402a6b:	745050        	extui	a5, a5, 0, 8
  402a6e:	003706        	j	402b4e <_vfprintf_r+0x20fe>
  402a71:	1a6252        	s32i	a5, a2, 104
  402a74:	052457        	blt	a4, a5, 402a7d <_vfprintf_r+0x202d>
  402a77:	192222        	l32i	a2, a2, 100
  402a7a:	000286        	j	402a88 <_vfprintf_r+0x2038>
  402a7d:	042467        	blt	a4, a6, 402a85 <_vfprintf_r+0x2035>
  402a80:	442c      	movi.n	a4, 36
  402a82:	1a6242        	s32i	a4, a2, 104
  402a85:	9c2122        	l32i	a2, a1, 0x270
  402a88:	9e2142        	l32i	a4, a1, 0x278
  402a8b:	224a      	add.n	a2, a2, a4
  402a8d:	fcc222        	addi	a2, a2, -4
  402a90:	000252        	l8ui	a5, a2, 0
  402a93:	002dc6        	j	402b4e <_vfprintf_r+0x20fe>
  402a96:	64bc      	beqz.n	a4, 402ad0 <_vfprintf_r+0x2080>
  402a98:	0ca277        	bge	a2, a7, 402aa8 <_vfprintf_r+0x2058>
  402a9b:	1122d0        	slli	a2, a2, 3
  402a9e:	10c192        	addi	a9, a1, 16
  402aa1:	292a      	add.n	a2, a9, a2
  402aa3:	0258      	l32i.n	a5, a2, 0
  402aa5:	000846        	j	402aca <_vfprintf_r+0x207a>
  402aa8:	5ca2a2        	movi	a10, 0x25c
  402aab:	10c1b2        	addi	a11, a1, 16
  402aae:	41aa      	add.n	a4, a1, a10
  402ab0:	0149      	s32i.n	a4, a1, 0
  402ab2:	01dbf2        	addmi	a15, a11, 0x100
  402ab5:	50a2d2        	movi	a13, 0x250
  402ab8:	0bed      	mov.n	a14, a11
  402aba:	60a2c2        	movi	a12, 0x260
  402abd:	deda      	add.n	a13, a14, a13
  402abf:	ceca      	add.n	a12, a14, a12
  402ac1:	03bd      	mov.n	a11, a3
  402ac3:	02ad      	mov.n	a10, a2
  402ac5:	fdaca5        	call8	400590 <get_arg$isra$0>
  402ac8:	0a58      	l32i.n	a5, a10, 0
  402aca:	9f2132        	l32i	a3, a1, 0x27c
  402acd:	001f46        	j	402b4e <_vfprintf_r+0x20fe>
  402ad0:	9f2142        	l32i	a4, a1, 0x27c
  402ad3:	341b      	addi.n	a3, a4, 1
  402ad5:	0ba477        	bge	a4, a7, 402ae4 <_vfprintf_r+0x2094>
  402ad8:	1122d0        	slli	a2, a2, 3
  402adb:	10c152        	addi	a5, a1, 16
  402ade:	252a      	add.n	a2, a5, a2
  402ae0:	001a06        	j	402b4c <_vfprintf_r+0x20fc>
  402ae3:	00          	.byte 00
  402ae4:	10c162        	addi	a6, a1, 16
  402ae7:	02d622        	addmi	a2, a6, 0x200
  402aea:	1a2262        	l32i	a6, a2, 104
  402aed:	f81c      	movi.n	a8, 31
  402aef:	564b      	addi.n	a5, a6, 4
  402af1:	841c      	movi.n	a4, 24
  402af3:	332877        	blt	a8, a7, 402b2a <_vfprintf_r+0x20da>
  402af6:	871b      	addi.n	a8, a7, 1
  402af8:	986182        	s32i	a8, a1, 0x260
  402afb:	1a6252        	s32i	a5, a2, 104
  402afe:	062457        	blt	a4, a5, 402b08 <_vfprintf_r+0x20b8>
  402b01:	192222        	l32i	a2, a2, 100
  402b04:	0002c6        	j	402b13 <_vfprintf_r+0x20c3>
  402b07:	00          	.byte 00
  402b08:	042467        	blt	a4, a6, 402b10 <_vfprintf_r+0x20c0>
  402b0b:	442c      	movi.n	a4, 36
  402b0d:	1a6242        	s32i	a4, a2, 104
  402b10:	9c2122        	l32i	a2, a1, 0x270
  402b13:	9e2142        	l32i	a4, a1, 0x278
  402b16:	1177d0        	slli	a7, a7, 3
  402b19:	224a      	add.n	a2, a2, a4
  402b1b:	fcc222        	addi	a2, a2, -4
  402b1e:	0258      	l32i.n	a5, a2, 0
  402b20:	10c182        	addi	a8, a1, 16
  402b23:	787a      	add.n	a7, a8, a7
  402b25:	0759      	s32i.n	a5, a7, 0
  402b27:	0008c6        	j	402b4e <_vfprintf_r+0x20fe>
  402b2a:	1a6252        	s32i	a5, a2, 104
  402b2d:	082457        	blt	a4, a5, 402b39 <_vfprintf_r+0x20e9>
  402b30:	192222        	l32i	a2, a2, 100
  402b33:	000346        	j	402b44 <_vfprintf_r+0x20f4>
  402b36:	00          	.byte 00
  402b37:	00          	.byte 00
  402b38:	00          	.byte 00
  402b39:	042467        	blt	a4, a6, 402b41 <_vfprintf_r+0x20f1>
  402b3c:	442c      	movi.n	a4, 36
  402b3e:	1a6242        	s32i	a4, a2, 104
  402b41:	9c2122        	l32i	a2, a1, 0x270
  402b44:	9e2142        	l32i	a4, a1, 0x278
  402b47:	224a      	add.n	a2, a2, a4
  402b49:	fcc222        	addi	a2, a2, -4
  402b4c:	0258      	l32i.n	a5, a2, 0
  402b4e:	060c      	movi.n	a6, 0
  402b50:	202560        	or	a2, a5, a6
  402b53:	d29c      	beqz.n	a2, 402b74 <_vfprintf_r+0x2124>
  402b55:	a12192        	l32i	a9, a1, 0x284
  402b58:	186907        	bbci	a9, 0, 402b74 <_vfprintf_r+0x2124>
  402b5b:	10c1a2        	addi	a10, a1, 16
  402b5e:	02da22        	addmi	a2, a10, 0x200
  402b61:	043c      	movi.n	a4, 48
  402b63:	544242        	s8i	a4, a2, 84
  402b66:	a82142        	l32i	a4, a1, 0x2a0
  402b69:	554242        	s8i	a4, a2, 85
  402b6c:	220c      	movi.n	a2, 2
  402b6e:	209920        	or	a9, a9, a2
  402b71:	a16192        	s32i	a9, a1, 0x284
  402b74:	a12182        	l32i	a8, a1, 0x284
  402b77:	ffab22        	movi	a2, 0xfffffbff
  402b7a:	108820        	and	a8, a8, a2
  402b7d:	a16182        	s32i	a8, a1, 0x284
  402b80:	270c      	movi.n	a7, 2
  402b82:	10c192        	addi	a9, a1, 16
  402b85:	02d922        	addmi	a2, a9, 0x200
  402b88:	040c      	movi.n	a4, 0
  402b8a:	564242        	s8i	a4, a2, 86
  402b8d:	9f6132        	s32i	a3, a1, 0x27c
  402b90:	a52122        	l32i	a2, a1, 0x294
  402b93:	260226        	beqi	a2, -1, 402bbd <_vfprintf_r+0x216d>
  402b96:	a12132        	l32i	a3, a1, 0x284
  402b99:	7faf22        	movi	a2, -129
  402b9c:	102320        	and	a2, a3, a2
  402b9f:	140c      	movi.n	a4, 1
  402ba1:	203560        	or	a3, a5, a6
  402ba4:	080c      	movi.n	a8, 0
  402ba6:	938430        	movnez	a8, a4, a3
  402ba9:	743080        	extui	a3, a8, 0, 8
  402bac:	03dc      	bnez.n	a3, 402bc0 <_vfprintf_r+0x2170>
  402bae:	a52182        	l32i	a8, a1, 0x294
  402bb1:	933480        	movnez	a3, a4, a8
  402bb4:	16c316        	beqz	a3, 402d24 <_vfprintf_r+0x22d4>
  402bb7:	000146        	j	402bc0 <_vfprintf_r+0x2170>
  402bba:	00          	.byte 00
  402bbb:	00          	.byte 00
  402bbc:	00          	.byte 00
  402bbd:	a12122        	l32i	a2, a1, 0x284
  402bc0:	80a142        	movi	a4, 0x180
  402bc3:	591726        	beqi	a7, 1, 402c20 <_vfprintf_r+0x21d0>
  402bc6:	022766        	bnei	a7, 2, 402bcc <_vfprintf_r+0x217c>
  402bc9:	004806        	j	402ced <_vfprintf_r+0x229d>
  402bcc:	90a192        	movi	a9, 0x190
  402bcf:	991a      	add.n	a9, a9, a1
  402bd1:	64c942        	addi	a4, a9, 100
  402bd4:	0000c6        	j	402bdb <_vfprintf_r+0x218b>
  402bd7:	00          	.byte 00
  402bd8:	a32142        	l32i	a4, a1, 0x28c
  402bdb:	340b      	addi.n	a3, a4, -1
  402bdd:	a36132        	s32i	a3, a1, 0x28c
  402be0:	017630        	slli	a7, a6, 29
  402be3:	243050        	extui	a3, a5, 0, 3
  402be6:	a32182        	l32i	a8, a1, 0x28c
  402be9:	415350        	srli	a5, a5, 3
  402bec:	30c332        	addi	a3, a3, 48
  402bef:	205750        	or	a5, a7, a5
  402bf2:	416360        	srli	a6, a6, 3
  402bf5:	004832        	s8i	a3, a8, 0
  402bf8:	207560        	or	a7, a5, a6
  402bfb:	fd9756        	bnez	a7, 402bd8 <_vfprintf_r+0x2188>
  402bfe:	d0c332        	addi	a3, a3, -48
  402c01:	150c      	movi.n	a5, 1
  402c03:	835730        	moveqz	a5, a7, a3
  402c06:	743050        	extui	a3, a5, 0, 8
  402c09:	140316        	beqz	a3, 402d4d <_vfprintf_r+0x22fd>
  402c0c:	02e207        	bbsi	a2, 0, 402c12 <_vfprintf_r+0x21c2>
  402c0f:	004e86        	j	402d4d <_vfprintf_r+0x22fd>
  402c12:	fec442        	addi	a4, a4, -2
  402c15:	033c      	movi.n	a3, 48
  402c17:	004432        	s8i	a3, a4, 0
  402c1a:	a36142        	s32i	a4, a1, 0x28c
  402c1d:	004b06        	j	402d4d <_vfprintf_r+0x22fd>
  402c20:	d6dc      	bnez.n	a6, 402c41 <_vfprintf_r+0x21f1>
  402c22:	930c      	movi.n	a3, 9
  402c24:	193357        	bltu	a3, a5, 402c41 <_vfprintf_r+0x21f1>
  402c27:	10c192        	addi	a9, a1, 16
  402c2a:	01d932        	addmi	a3, a9, 0x100
  402c2d:	30c552        	addi	a5, a5, 48
  402c30:	e34352        	s8i	a5, a3, 227
  402c33:	90a132        	movi	a3, 0x190
  402c36:	331a      	add.n	a3, a3, a1
  402c38:	63c332        	addi	a3, a3, 99
  402c3b:	a36132        	s32i	a3, a1, 0x28c
  402c3e:	0042c6        	j	402d4d <_vfprintf_r+0x22fd>
  402c41:	080c      	movi.n	a8, 0
  402c43:	414a      	add.n	a4, a1, a4
  402c45:	00a432        	movi	a3, 0x400
  402c48:	a76182        	s32i	a8, a1, 0x29c
  402c4b:	74c442        	addi	a4, a4, 116
  402c4e:	103230        	and	a3, a2, a3
  402c51:	000186        	j	402c5b <_vfprintf_r+0x220b>
  402c54:	a32142        	l32i	a4, a1, 0x28c
  402c57:	0a5d      	mov.n	a5, a10
  402c59:	0b6d      	mov.n	a6, a11
  402c5b:	f535c1        	l32r	a12, 400130 <_init-0x260>
  402c5e:	f51fd1        	l32r	a13, 4000dc <_init-0x2b4>
  402c61:	440b      	addi.n	a4, a4, -1
  402c63:	05ad      	mov.n	a10, a5
  402c65:	06bd      	mov.n	a11, a6
  402c67:	a36142        	s32i	a4, a1, 0x28c
  402c6a:	10d625        	call8	4139cc <__umoddi3>
  402c6d:	a72192        	l32i	a9, a1, 0x29c
  402c70:	30caa2        	addi	a10, a10, 48
  402c73:	991b      	addi.n	a9, a9, 1
  402c75:	0044a2        	s8i	a10, a4, 0
  402c78:	a76192        	s32i	a9, a1, 0x29c
  402c7b:	04e316        	beqz	a3, 402ccd <_vfprintf_r+0x227d>
  402c7e:	ad2142        	l32i	a4, a1, 0x2b4
  402c81:	190c      	movi.n	a9, 1
  402c83:	000482        	l8ui	a8, a4, 0
  402c86:	006656        	bnez	a6, 402c90 <_vfprintf_r+0x2240>
  402c89:	940c      	movi.n	a4, 9
  402c8b:	013457        	bltu	a4, a5, 402c90 <_vfprintf_r+0x2240>
  402c8e:	069d      	mov.n	a9, a6
  402c90:	01af42        	movi	a4, -255
  402c93:	484a      	add.n	a4, a8, a4
  402c95:	070c      	movi.n	a7, 0
  402c97:	1a0c      	movi.n	a10, 1
  402c99:	83a740        	moveqz	a10, a7, a4
  402c9c:	2d0a97        	bnone	a10, a9, 402ccd <_vfprintf_r+0x227d>
  402c9f:	a72192        	l32i	a9, a1, 0x29c
  402ca2:	279897        	bne	a8, a9, 402ccd <_vfprintf_r+0x227d>
  402ca5:	a32142        	l32i	a4, a1, 0x28c
  402ca8:	b12182        	l32i	a8, a1, 0x2c4
  402cab:	b521b2        	l32i	a11, a1, 0x2d4
  402cae:	c04480        	sub	a4, a4, a8
  402cb1:	04ad      	mov.n	a10, a4
  402cb3:	20c880        	or	a12, a8, a8
  402cb6:	a36142        	s32i	a4, a1, 0x28c
  402cb9:	057e25        	call8	40849c <strncpy>
  402cbc:	ad2192        	l32i	a9, a1, 0x2b4
  402cbf:	a76172        	s32i	a7, a1, 0x29c
  402cc2:	010942        	l8ui	a4, a9, 1
  402cc5:	041477        	beq	a4, a7, 402ccd <_vfprintf_r+0x227d>
  402cc8:	991b      	addi.n	a9, a9, 1
  402cca:	ad6192        	s32i	a9, a1, 0x2b4
  402ccd:	f518c1        	l32r	a12, 400130 <_init-0x260>
  402cd0:	f503d1        	l32r	a13, 4000dc <_init-0x2b4>
  402cd3:	20a550        	or	a10, a5, a5
  402cd6:	20b660        	or	a11, a6, a6
  402cd9:	10a865        	call8	413760 <__udivdi3>
  402cdc:	f74656        	bnez	a6, 402c54 <_vfprintf_r+0x2204>
  402cdf:	09a042        	movi	a4, 9
  402ce2:	02b457        	bgeu	a4, a5, 402ce8 <_vfprintf_r+0x2298>
  402ce5:	ffdac6        	j	402c54 <_vfprintf_r+0x2204>
  402ce8:	001846        	j	402d4d <_vfprintf_r+0x22fd>
  402ceb:	00          	.byte 00
  402cec:	00          	.byte 00
  402ced:	90a132        	movi	a3, 0x190
  402cf0:	331a      	add.n	a3, a3, a1
  402cf2:	64c332        	addi	a3, a3, 100
  402cf5:	a36132        	s32i	a3, a1, 0x28c
  402cf8:	b72182        	l32i	a8, a1, 0x2dc
  402cfb:	343050        	extui	a3, a5, 0, 4
  402cfe:	a32142        	l32i	a4, a1, 0x28c
  402d01:	383a      	add.n	a3, a8, a3
  402d03:	000332        	l8ui	a3, a3, 0
  402d06:	440b      	addi.n	a4, a4, -1
  402d08:	004432        	s8i	a3, a4, 0
  402d0b:	415450        	srli	a5, a5, 4
  402d0e:	013640        	slli	a3, a6, 28
  402d11:	205350        	or	a5, a3, a5
  402d14:	416460        	srli	a6, a6, 4
  402d17:	a36142        	s32i	a4, a1, 0x28c
  402d1a:	203560        	or	a3, a5, a6
  402d1d:	fd7356        	bnez	a3, 402cf8 <_vfprintf_r+0x22a8>
  402d20:	000a46        	j	402d4d <_vfprintf_r+0x22fd>
  402d23:	00          	.byte 00
  402d24:	80a132        	movi	a3, 0x180
  402d27:	10c192        	addi	a9, a1, 16
  402d2a:	493a      	add.n	a4, a9, a3
  402d2c:	64c442        	addi	a4, a4, 100
  402d2f:	a36142        	s32i	a4, a1, 0x28c
  402d32:	77dc      	bnez.n	a7, 402d4d <_vfprintf_r+0x22fd>
  402d34:	a12142        	l32i	a4, a1, 0x284
  402d37:	126407        	bbci	a4, 0, 402d4d <_vfprintf_r+0x22fd>
  402d3a:	90a182        	movi	a8, 0x190
  402d3d:	881a      	add.n	a8, a8, a1
  402d3f:	01d942        	addmi	a4, a9, 0x100
  402d42:	053c      	movi.n	a5, 48
  402d44:	63c882        	addi	a8, a8, 99
  402d47:	e34452        	s8i	a5, a4, 227
  402d4a:	a36182        	s32i	a8, a1, 0x28c
  402d4d:	f4a132        	movi	a3, 0x1f4
  402d50:	a32192        	l32i	a9, a1, 0x28c
  402d53:	313a      	add.n	a3, a1, a3
  402d55:	c03390        	sub	a3, a3, a9
  402d58:	a16122        	s32i	a2, a1, 0x284
  402d5b:	020c      	movi.n	a2, 0
  402d5d:	a52162        	l32i	a6, a1, 0x294
  402d60:	a66122        	s32i	a2, a1, 0x298
  402d63:	a56132        	s32i	a3, a1, 0x294
  402d66:	023d      	mov.n	a3, a2
  402d68:	035d      	mov.n	a5, a3
  402d6a:	000e86        	j	402da8 <_vfprintf_r+0x2358>
  402d6d:	a82132        	l32i	a3, a1, 0x2a0
  402d70:	13cc      	bnez.n	a3, 402d75 <_vfprintf_r+0x2325>
  402d72:	02f186        	j	40393c <_vfprintf_r+0x2eec>
  402d75:	10c142        	addi	a4, a1, 16
  402d78:	01d422        	addmi	a2, a4, 0x100
  402d7b:	050c      	movi.n	a5, 0
  402d7d:	804232        	s8i	a3, a2, 128
  402d80:	160c      	movi.n	a6, 1
  402d82:	02d422        	addmi	a2, a4, 0x200
  402d85:	030c      	movi.n	a3, 0
  402d87:	564232        	s8i	a3, a2, 86
  402d8a:	a56162        	s32i	a6, a1, 0x294
  402d8d:	a66152        	s32i	a5, a1, 0x298
  402d90:	056d      	mov.n	a6, a5
  402d92:	053d      	mov.n	a3, a5
  402d94:	052d      	mov.n	a2, a5
  402d96:	90a182        	movi	a8, 0x190
  402d99:	818a      	add.n	a8, a1, a8
  402d9b:	a36182        	s32i	a8, a1, 0x28c
  402d9e:	000186        	j	402da8 <_vfprintf_r+0x2358>
  402da1:	00          	.byte 00
  402da2:	063d      	mov.n	a3, a6
  402da4:	065d      	mov.n	a5, a6
  402da6:	052d      	mov.n	a2, a5
  402da8:	a52192        	l32i	a9, a1, 0x294
  402dab:	10c1a2        	addi	a10, a1, 16
  402dae:	02da42        	addmi	a4, a10, 0x200
  402db1:	539690        	max	a9, a6, a9
  402db4:	560442        	l8ui	a4, a4, 86
  402db7:	b06192        	s32i	a9, a1, 0x2c0
  402dba:	348c      	beqz.n	a4, 402dc1 <_vfprintf_r+0x2371>
  402dbc:	991b      	addi.n	a9, a9, 1
  402dbe:	b06192        	s32i	a9, a1, 0x2c0
  402dc1:	a12182        	l32i	a8, a1, 0x284
  402dc4:	240c      	movi.n	a4, 2
  402dc6:	104840        	and	a4, a8, a4
  402dc9:	b26142        	s32i	a4, a1, 0x2c8
  402dcc:	008416        	beqz	a4, 402dd8 <_vfprintf_r+0x2388>
  402dcf:	b02192        	l32i	a9, a1, 0x2c0
  402dd2:	02c992        	addi	a9, a9, 2
  402dd5:	b06192        	s32i	a9, a1, 0x2c0
  402dd8:	a12182        	l32i	a8, a1, 0x284
  402ddb:	84a042        	movi	a4, 132
  402dde:	104840        	and	a4, a8, a4
  402de1:	b46142        	s32i	a4, a1, 0x2d0
  402de4:	095456        	bnez	a4, 402e7d <_vfprintf_r+0x242d>
  402de7:	ac2192        	l32i	a9, a1, 0x2b0
  402dea:	b021e2        	l32i	a14, a1, 0x2c0
  402ded:	c049e0        	sub	a4, a9, a14
  402df0:	091c      	movi.n	a9, 16
  402df2:	3c14e6        	bgei	a4, 1, 402e32 <_vfprintf_r+0x23e2>
  402df5:	002106        	j	402e7d <_vfprintf_r+0x242d>
  402df8:	a021d2        	l32i	a13, a1, 0x280
  402dfb:	10cbb2        	addi	a11, a11, 16
  402dfe:	006dc2        	s32i	a12, a13, 0
  402e01:	016d92        	s32i	a9, a13, 4
  402e04:	b8b9      	s32i.n	a11, a8, 44
  402e06:	a879      	s32i.n	a7, a8, 40
  402e08:	2087a6        	blti	a7, 8, 402e2c <_vfprintf_r+0x23dc>
  402e0b:	34a2c2        	movi	a12, 0x234
  402e0e:	a221b2        	l32i	a11, a1, 0x288
  402e11:	a421a2        	l32i	a10, a1, 0x290
  402e14:	cc1a      	add.n	a12, a12, a1
  402e16:	b96192        	s32i	a9, a1, 0x2e4
  402e19:	0cb8e5        	call8	40f9a8 <__sprint_r>
  402e1c:	b92192        	l32i	a9, a1, 0x2e4
  402e1f:	1a8c      	beqz.n	a10, 402e24 <_vfprintf_r+0x23d4>
  402e21:	02cec6        	j	403960 <_vfprintf_r+0x2f10>
  402e24:	e4a1a2        	movi	a10, 0x1e4
  402e27:	10c1e2        	addi	a14, a1, 16
  402e2a:	aeaa      	add.n	a10, a14, a10
  402e2c:	f0c442        	addi	a4, a4, -16
  402e2f:	a061a2        	s32i	a10, a1, 0x280
  402e32:	10c1a2        	addi	a10, a1, 16
  402e35:	02da82        	addmi	a8, a10, 0x200
  402e38:	a021c2        	l32i	a12, a1, 0x280
  402e3b:	a878      	l32i.n	a7, a8, 40
  402e3d:	ac8b      	addi.n	a10, a12, 8
  402e3f:	b8b8      	l32i.n	a11, a8, 44
  402e41:	771b      	addi.n	a7, a7, 1
  402e43:	f4bcc1        	l32r	a12, 400134 <_init-0x25c>
  402e46:	ae2947        	blt	a9, a4, 402df8 <_vfprintf_r+0x23a8>
  402e49:	a02192        	l32i	a9, a1, 0x280
  402e4c:	a879      	s32i.n	a7, a8, 40
  402e4e:	1949      	s32i.n	a4, a9, 4
  402e50:	44ba      	add.n	a4, a4, a11
  402e52:	09c9      	s32i.n	a12, a9, 0
  402e54:	b849      	s32i.n	a4, a8, 44
  402e56:	a061a2        	s32i	a10, a1, 0x280
  402e59:	2087a6        	blti	a7, 8, 402e7d <_vfprintf_r+0x242d>
  402e5c:	10c1a2        	addi	a10, a1, 16
  402e5f:	24a2c2        	movi	a12, 0x224
  402e62:	caca      	add.n	a12, a10, a12
  402e64:	a221b2        	l32i	a11, a1, 0x288
  402e67:	a421a2        	l32i	a10, a1, 0x290
  402e6a:	0cb3e5        	call8	40f9a8 <__sprint_r>
  402e6d:	1a8c      	beqz.n	a10, 402e72 <_vfprintf_r+0x2422>
  402e6f:	02bb46        	j	403960 <_vfprintf_r+0x2f10>
  402e72:	e4a142        	movi	a4, 0x1e4
  402e75:	10c182        	addi	a8, a1, 16
  402e78:	884a      	add.n	a8, a8, a4
  402e7a:	a06182        	s32i	a8, a1, 0x280
  402e7d:	10c192        	addi	a9, a1, 16
  402e80:	02d972        	addmi	a7, a9, 0x200
  402e83:	560742        	l8ui	a4, a7, 86
  402e86:	047416        	beqz	a4, 402ed1 <_vfprintf_r+0x2481>
  402e89:	a02192        	l32i	a9, a1, 0x280
  402e8c:	66a2a2        	movi	a10, 0x266
  402e8f:	8f2142        	l32i	a4, a1, 0x23c
  402e92:	81aa      	add.n	a8, a1, a10
  402e94:	0989      	s32i.n	a8, a9, 0
  402e96:	180c      	movi.n	a8, 1
  402e98:	448a      	add.n	a4, a4, a8
  402e9a:	b749      	s32i.n	a4, a7, 44
  402e9c:	a748      	l32i.n	a4, a7, 40
  402e9e:	1989      	s32i.n	a8, a9, 4
  402ea0:	448a      	add.n	a4, a4, a8
  402ea2:	a749      	s32i.n	a4, a7, 40
  402ea4:	0884e6        	bgei	a4, 8, 402eb0 <_vfprintf_r+0x2460>
  402ea7:	998b      	addi.n	a9, a9, 8
  402ea9:	a06192        	s32i	a9, a1, 0x280
  402eac:	000846        	j	402ed1 <_vfprintf_r+0x2481>
  402eaf:	00          	.byte 00
  402eb0:	10c1a2        	addi	a10, a1, 16
  402eb3:	24a2c2        	movi	a12, 0x224
  402eb6:	80cac0        	add	a12, a10, a12
  402eb9:	a221b2        	l32i	a11, a1, 0x288
  402ebc:	a421a2        	l32i	a10, a1, 0x290
  402ebf:	0caea5        	call8	40f9a8 <__sprint_r>
  402ec2:	002a16        	beqz	a10, 402ec8 <_vfprintf_r+0x2478>
  402ec5:	02a5c6        	j	403960 <_vfprintf_r+0x2f10>
  402ec8:	f4a182        	movi	a8, 0x1f4
  402ecb:	808180        	add	a8, a1, a8
  402ece:	a06182        	s32i	a8, a1, 0x280
  402ed1:	b22192        	l32i	a9, a1, 0x2c8
  402ed4:	051916        	beqz	a9, 402f29 <_vfprintf_r+0x24d9>
  402ed7:	a02192        	l32i	a9, a1, 0x280
  402eda:	64a2b2        	movi	a11, 0x264
  402edd:	8f2142        	l32i	a4, a1, 0x23c
  402ee0:	81ba      	add.n	a8, a1, a11
  402ee2:	0989      	s32i.n	a8, a9, 0
  402ee4:	280c      	movi.n	a8, 2
  402ee6:	448a      	add.n	a4, a4, a8
  402ee8:	8f6142        	s32i	a4, a1, 0x23c
  402eeb:	8e2142        	l32i	a4, a1, 0x238
  402eee:	10c1a2        	addi	a10, a1, 16
  402ef1:	441b      	addi.n	a4, a4, 1
  402ef3:	1989      	s32i.n	a8, a9, 4
  402ef5:	8e6142        	s32i	a4, a1, 0x238
  402ef8:	02da72        	addmi	a7, a10, 0x200
  402efb:	0984e6        	bgei	a4, 8, 402f08 <_vfprintf_r+0x24b8>
  402efe:	998b      	addi.n	a9, a9, 8
  402f00:	a06192        	s32i	a9, a1, 0x280
  402f03:	000886        	j	402f29 <_vfprintf_r+0x24d9>
  402f06:	00          	.byte 00
  402f07:	00          	.byte 00
  402f08:	10c1a2        	addi	a10, a1, 16
  402f0b:	24a2c2        	movi	a12, 0x224
  402f0e:	80cac0        	add	a12, a10, a12
  402f11:	a221b2        	l32i	a11, a1, 0x288
  402f14:	a421a2        	l32i	a10, a1, 0x290
  402f17:	0ca925        	call8	40f9a8 <__sprint_r>
  402f1a:	002a16        	beqz	a10, 402f20 <_vfprintf_r+0x24d0>
  402f1d:	028fc6        	j	403960 <_vfprintf_r+0x2f10>
  402f20:	f4a182        	movi	a8, 0x1f4
  402f23:	808180        	add	a8, a1, a8
  402f26:	a06182        	s32i	a8, a1, 0x280
  402f29:	b42192        	l32i	a9, a1, 0x2d0
  402f2c:	02e926        	beqi	a9, 128, 402f32 <_vfprintf_r+0x24e2>
  402f2f:	002586        	j	402fc9 <_vfprintf_r+0x2579>
  402f32:	b02192        	l32i	a9, a1, 0x2c0
  402f35:	ac2182        	l32i	a8, a1, 0x2b0
  402f38:	c04890        	sub	a4, a8, a9
  402f3b:	091c      	movi.n	a9, 16
  402f3d:	3d14e6        	bgei	a4, 1, 402f7e <_vfprintf_r+0x252e>
  402f40:	002146        	j	402fc9 <_vfprintf_r+0x2579>
  402f43:	00          	.byte 00
  402f44:	a021d2        	l32i	a13, a1, 0x280
  402f47:	10cbb2        	addi	a11, a11, 16
  402f4a:	006dc2        	s32i	a12, a13, 0
  402f4d:	016d92        	s32i	a9, a13, 4
  402f50:	b8b9      	s32i.n	a11, a8, 44
  402f52:	a879      	s32i.n	a7, a8, 40
  402f54:	2087a6        	blti	a7, 8, 402f78 <_vfprintf_r+0x2528>
  402f57:	34a2c2        	movi	a12, 0x234
  402f5a:	a221b2        	l32i	a11, a1, 0x288
  402f5d:	a421a2        	l32i	a10, a1, 0x290
  402f60:	cc1a      	add.n	a12, a12, a1
  402f62:	b96192        	s32i	a9, a1, 0x2e4
  402f65:	0ca425        	call8	40f9a8 <__sprint_r>
  402f68:	b92192        	l32i	a9, a1, 0x2e4
  402f6b:	1a8c      	beqz.n	a10, 402f70 <_vfprintf_r+0x2520>
  402f6d:	027bc6        	j	403960 <_vfprintf_r+0x2f10>
  402f70:	e4a1a2        	movi	a10, 0x1e4
  402f73:	10c1e2        	addi	a14, a1, 16
  402f76:	aeaa      	add.n	a10, a14, a10
  402f78:	f0c442        	addi	a4, a4, -16
  402f7b:	a061a2        	s32i	a10, a1, 0x280
  402f7e:	10c1a2        	addi	a10, a1, 16
  402f81:	02da82        	addmi	a8, a10, 0x200
  402f84:	a021c2        	l32i	a12, a1, 0x280
  402f87:	a878      	l32i.n	a7, a8, 40
  402f89:	ac8b      	addi.n	a10, a12, 8
  402f8b:	b8b8      	l32i.n	a11, a8, 44
  402f8d:	771b      	addi.n	a7, a7, 1
  402f8f:	f46ac1        	l32r	a12, 400138 <_init-0x258>
  402f92:	ae2947        	blt	a9, a4, 402f44 <_vfprintf_r+0x24f4>
  402f95:	a02192        	l32i	a9, a1, 0x280
  402f98:	a879      	s32i.n	a7, a8, 40
  402f9a:	1949      	s32i.n	a4, a9, 4
  402f9c:	44ba      	add.n	a4, a4, a11
  402f9e:	09c9      	s32i.n	a12, a9, 0
  402fa0:	b849      	s32i.n	a4, a8, 44
  402fa2:	a061a2        	s32i	a10, a1, 0x280
  402fa5:	2087a6        	blti	a7, 8, 402fc9 <_vfprintf_r+0x2579>
  402fa8:	10c1a2        	addi	a10, a1, 16
  402fab:	24a2c2        	movi	a12, 0x224
  402fae:	caca      	add.n	a12, a10, a12
  402fb0:	a221b2        	l32i	a11, a1, 0x288
  402fb3:	a421a2        	l32i	a10, a1, 0x290
  402fb6:	0c9f25        	call8	40f9a8 <__sprint_r>
  402fb9:	1a8c      	beqz.n	a10, 402fbe <_vfprintf_r+0x256e>
  402fbb:	026846        	j	403960 <_vfprintf_r+0x2f10>
  402fbe:	e4a142        	movi	a4, 0x1e4
  402fc1:	10c182        	addi	a8, a1, 16
  402fc4:	884a      	add.n	a8, a8, a4
  402fc6:	a06182        	s32i	a8, a1, 0x280
  402fc9:	a52192        	l32i	a9, a1, 0x294
  402fcc:	081c      	movi.n	a8, 16
  402fce:	c06690        	sub	a6, a6, a9
  402fd1:	3b16e6        	bgei	a6, 1, 403010 <_vfprintf_r+0x25c0>
  402fd4:	002006        	j	403058 <_vfprintf_r+0x2608>
  402fd7:	00          	.byte 00
  402fd8:	a021c2        	l32i	a12, a1, 0x280
  402fdb:	10caa2        	addi	a10, a10, 16
  402fde:	0cb9      	s32i.n	a11, a12, 0
  402fe0:	1c89      	s32i.n	a8, a12, 4
  402fe2:	b7a9      	s32i.n	a10, a7, 44
  402fe4:	a749      	s32i.n	a4, a7, 40
  402fe6:	2084a6        	blti	a4, 8, 40300a <_vfprintf_r+0x25ba>
  402fe9:	34a2c2        	movi	a12, 0x234
  402fec:	a221b2        	l32i	a11, a1, 0x288
  402fef:	a421a2        	l32i	a10, a1, 0x290
  402ff2:	cc1a      	add.n	a12, a12, a1
  402ff4:	b86182        	s32i	a8, a1, 0x2e0
  402ff7:	0c9b25        	call8	40f9a8 <__sprint_r>
  402ffa:	b82182        	l32i	a8, a1, 0x2e0
  402ffd:	1a8c      	beqz.n	a10, 403002 <_vfprintf_r+0x25b2>
  402fff:	025746        	j	403960 <_vfprintf_r+0x2f10>
  403002:	e4a192        	movi	a9, 0x1e4
  403005:	10c1d2        	addi	a13, a1, 16
  403008:	9d9a      	add.n	a9, a13, a9
  40300a:	f0c662        	addi	a6, a6, -16
  40300d:	a06192        	s32i	a9, a1, 0x280
  403010:	10c1e2        	addi	a14, a1, 16
  403013:	02de72        	addmi	a7, a14, 0x200
  403016:	a021b2        	l32i	a11, a1, 0x280
  403019:	a748      	l32i.n	a4, a7, 40
  40301b:	9b8b      	addi.n	a9, a11, 8
  40301d:	b7a8      	l32i.n	a10, a7, 44
  40301f:	441b      	addi.n	a4, a4, 1
  403021:	f445b1        	l32r	a11, 400138 <_init-0x258>
  403024:	b02867        	blt	a8, a6, 402fd8 <_vfprintf_r+0x2588>
  403027:	a02182        	l32i	a8, a1, 0x280
  40302a:	a749      	s32i.n	a4, a7, 40
  40302c:	1869      	s32i.n	a6, a8, 4
  40302e:	66aa      	add.n	a6, a6, a10
  403030:	08b9      	s32i.n	a11, a8, 0
  403032:	b769      	s32i.n	a6, a7, 44
  403034:	a06192        	s32i	a9, a1, 0x280
  403037:	1d84a6        	blti	a4, 8, 403058 <_vfprintf_r+0x2608>
  40303a:	24a2c2        	movi	a12, 0x224
  40303d:	a221b2        	l32i	a11, a1, 0x288
  403040:	a421a2        	l32i	a10, a1, 0x290
  403043:	ceca      	add.n	a12, a14, a12
  403045:	0c9625        	call8	40f9a8 <__sprint_r>
  403048:	1a8c      	beqz.n	a10, 40304d <_vfprintf_r+0x25fd>
  40304a:	024486        	j	403960 <_vfprintf_r+0x2f10>
  40304d:	e4a142        	movi	a4, 0x1e4
  403050:	10c192        	addi	a9, a1, 16
  403053:	994a      	add.n	a9, a9, a4
  403055:	a06192        	s32i	a9, a1, 0x280
  403058:	10c1a2        	addi	a10, a1, 16
  40305b:	a12142        	l32i	a4, a1, 0x284
  40305e:	02da72        	addmi	a7, a10, 0x200
  403061:	b768      	l32i.n	a6, a7, 44
  403063:	42e487        	bbsi	a4, 8, 4030a9 <_vfprintf_r+0x2659>
  403066:	a52192        	l32i	a9, a1, 0x294
  403069:	a728      	l32i.n	a2, a7, 40
  40306b:	a02152        	l32i	a5, a1, 0x280
  40306e:	a32182        	l32i	a8, a1, 0x28c
  403071:	696a      	add.n	a6, a9, a6
  403073:	221b      	addi.n	a2, a2, 1
  403075:	0589      	s32i.n	a8, a5, 0
  403077:	1599      	s32i.n	a9, a5, 4
  403079:	b769      	s32i.n	a6, a7, 44
  40307b:	a729      	s32i.n	a2, a7, 40
  40307d:	0782e6        	bgei	a2, 8, 403088 <_vfprintf_r+0x2638>
  403080:	558b      	addi.n	a5, a5, 8
  403082:	a06152        	s32i	a5, a1, 0x280
  403085:	01f206        	j	403851 <_vfprintf_r+0x2e01>
  403088:	10c1a2        	addi	a10, a1, 16
  40308b:	24a2c2        	movi	a12, 0x224
  40308e:	80cac0        	add	a12, a10, a12
  403091:	a221b2        	l32i	a11, a1, 0x288
  403094:	a421a2        	l32i	a10, a1, 0x290
  403097:	0c9125        	call8	40f9a8 <__sprint_r>
  40309a:	002a16        	beqz	a10, 4030a0 <_vfprintf_r+0x2650>
  40309d:	022fc6        	j	403960 <_vfprintf_r+0x2f10>
  4030a0:	f4a132        	movi	a3, 0x1f4
  4030a3:	803130        	add	a3, a1, a3
  4030a6:	017a46        	j	403693 <_vfprintf_r+0x2c43>
  4030a9:	a82182        	l32i	a8, a1, 0x2a0
  4030ac:	65a042        	movi	a4, 101
  4030af:	022487        	blt	a4, a8, 4030b5 <_vfprintf_r+0x2665>
  4030b2:	0178c6        	j	403699 <_vfprintf_r+0x2c49>
  4030b5:	f409c1        	l32r	a12, 4000dc <_init-0x2b4>
  4030b8:	f409d1        	l32r	a13, 4000dc <_init-0x2b4>
  4030bb:	aa21a2        	l32i	a10, a1, 0x2a8
  4030be:	ab21b2        	l32i	a11, a1, 0x2ac
  4030c1:	0fffe5        	call8	4130c0 <__eqdf2>
  4030c4:	100a56        	bnez	a10, 4031c8 <_vfprintf_r+0x2778>
  4030c7:	f41d21        	l32r	a2, 40013c <_init-0x254>
  4030ca:	a02192        	l32i	a9, a1, 0x280
  4030cd:	006922        	s32i	a2, a9, 0
  4030d0:	01a022        	movi	a2, 1
  4030d3:	806620        	add	a6, a6, a2
  4030d6:	1929      	s32i.n	a2, a9, 4
  4030d8:	a728      	l32i.n	a2, a7, 40
  4030da:	b769      	s32i.n	a6, a7, 44
  4030dc:	221b      	addi.n	a2, a2, 1
  4030de:	a729      	s32i.n	a2, a7, 40
  4030e0:	0982e6        	bgei	a2, 8, 4030ed <_vfprintf_r+0x269d>
  4030e3:	998b      	addi.n	a9, a9, 8
  4030e5:	a06192        	s32i	a9, a1, 0x280
  4030e8:	000886        	j	40310e <_vfprintf_r+0x26be>
  4030eb:	00          	.byte 00
  4030ec:	00          	.byte 00
  4030ed:	10c1a2        	addi	a10, a1, 16
  4030f0:	24a2c2        	movi	a12, 0x224
  4030f3:	80cac0        	add	a12, a10, a12
  4030f6:	a221b2        	l32i	a11, a1, 0x288
  4030f9:	a421a2        	l32i	a10, a1, 0x290
  4030fc:	0c8aa5        	call8	40f9a8 <__sprint_r>
  4030ff:	002a16        	beqz	a10, 403105 <_vfprintf_r+0x26b5>
  403102:	021686        	j	403960 <_vfprintf_r+0x2f10>
  403105:	f4a132        	movi	a3, 0x1f4
  403108:	803130        	add	a3, a1, a3
  40310b:	a06132        	s32i	a3, a1, 0x280
  40310e:	962122        	l32i	a2, a1, 0x258
  403111:	a72142        	l32i	a4, a1, 0x29c
  403114:	082247        	blt	a2, a4, 403120 <_vfprintf_r+0x26d0>
  403117:	a12152        	l32i	a5, a1, 0x284
  40311a:	02e507        	bbsi	a5, 0, 403120 <_vfprintf_r+0x26d0>
  40311d:	01cc06        	j	403851 <_vfprintf_r+0x2e01>
  403120:	af2192        	l32i	a9, a1, 0x2bc
  403123:	8f2122        	l32i	a2, a1, 0x23c
  403126:	a02162        	l32i	a6, a1, 0x280
  403129:	229a      	add.n	a2, a2, a9
  40312b:	8f6122        	s32i	a2, a1, 0x23c
  40312e:	8e2122        	l32i	a2, a1, 0x238
  403131:	b32182        	l32i	a8, a1, 0x2cc
  403134:	221b      	addi.n	a2, a2, 1
  403136:	0689      	s32i.n	a8, a6, 0
  403138:	1699      	s32i.n	a9, a6, 4
  40313a:	8e6122        	s32i	a2, a1, 0x238
  40313d:	0782e6        	bgei	a2, 8, 403148 <_vfprintf_r+0x26f8>
  403140:	668b      	addi.n	a6, a6, 8
  403142:	a06162        	s32i	a6, a1, 0x280
  403145:	000806        	j	403169 <_vfprintf_r+0x2719>
  403148:	10c1b2        	addi	a11, a1, 16
  40314b:	24a2c2        	movi	a12, 0x224
  40314e:	80cbc0        	add	a12, a11, a12
  403151:	a421a2        	l32i	a10, a1, 0x290
  403154:	a221b2        	l32i	a11, a1, 0x288
  403157:	0c8525        	call8	40f9a8 <__sprint_r>
  40315a:	002a16        	beqz	a10, 403160 <_vfprintf_r+0x2710>
  40315d:	01ffc6        	j	403960 <_vfprintf_r+0x2f10>
  403160:	f4a132        	movi	a3, 0x1f4
  403163:	803130        	add	a3, a1, a3
  403166:	a06132        	s32i	a3, a1, 0x280
  403169:	a72142        	l32i	a4, a1, 0x29c
  40316c:	051c      	movi.n	a5, 16
  40316e:	240b      	addi.n	a2, a4, -1
  403170:	3412e6        	bgei	a2, 1, 4031a8 <_vfprintf_r+0x2758>
  403173:	01b686        	j	403851 <_vfprintf_r+0x2e01>
  403176:	00          	.byte 00
  403177:	00          	.byte 00
  403178:	10c772        	addi	a7, a7, 16
  40317b:	016952        	s32i	a5, a9, 4
  40317e:	0b6472        	s32i	a7, a4, 44
  403181:	0a6432        	s32i	a3, a4, 40
  403184:	1a83a6        	blti	a3, 8, 4031a2 <_vfprintf_r+0x2752>
  403187:	34a2c2        	movi	a12, 0x234
  40318a:	a221b2        	l32i	a11, a1, 0x288
  40318d:	a421a2        	l32i	a10, a1, 0x290
  403190:	cc1a      	add.n	a12, a12, a1
  403192:	0c8165        	call8	40f9a8 <__sprint_r>
  403195:	1a8c      	beqz.n	a10, 40319a <_vfprintf_r+0x274a>
  403197:	01f146        	j	403960 <_vfprintf_r+0x2f10>
  40319a:	e4a162        	movi	a6, 0x1e4
  40319d:	10c1a2        	addi	a10, a1, 16
  4031a0:	6a6a      	add.n	a6, a10, a6
  4031a2:	f0c222        	addi	a2, a2, -16
  4031a5:	a06162        	s32i	a6, a1, 0x280
  4031a8:	a02182        	l32i	a8, a1, 0x280
  4031ab:	10c1b2        	addi	a11, a1, 16
  4031ae:	02db42        	addmi	a4, a11, 0x200
  4031b1:	688b      	addi.n	a6, a8, 8
  4031b3:	a02192        	l32i	a9, a1, 0x280
  4031b6:	f3e081        	l32r	a8, 400138 <_init-0x258>
  4031b9:	a438      	l32i.n	a3, a4, 40
  4031bb:	0989      	s32i.n	a8, a9, 0
  4031bd:	b478      	l32i.n	a7, a4, 44
  4031bf:	331b      	addi.n	a3, a3, 1
  4031c1:	b32527        	blt	a5, a2, 403178 <_vfprintf_r+0x2728>
  4031c4:	012846        	j	403669 <_vfprintf_r+0x2c19>
  4031c7:	00          	.byte 00
  4031c8:	962142        	l32i	a4, a1, 0x258
  4031cb:	0214a6        	blti	a4, 1, 4031d1 <_vfprintf_r+0x2781>
  4031ce:	0049c6        	j	4032f9 <_vfprintf_r+0x28a9>
  4031d1:	f3da21        	l32r	a2, 40013c <_init-0x254>
  4031d4:	a02142        	l32i	a4, a1, 0x280
  4031d7:	0429      	s32i.n	a2, a4, 0
  4031d9:	120c      	movi.n	a2, 1
  4031db:	662a      	add.n	a6, a6, a2
  4031dd:	1429      	s32i.n	a2, a4, 4
  4031df:	a728      	l32i.n	a2, a7, 40
  4031e1:	b769      	s32i.n	a6, a7, 44
  4031e3:	221b      	addi.n	a2, a2, 1
  4031e5:	a729      	s32i.n	a2, a7, 40
  4031e7:	0782e6        	bgei	a2, 8, 4031f2 <_vfprintf_r+0x27a2>
  4031ea:	448b      	addi.n	a4, a4, 8
  4031ec:	a06142        	s32i	a4, a1, 0x280
  4031ef:	000746        	j	403210 <_vfprintf_r+0x27c0>
  4031f2:	24a2c2        	movi	a12, 0x224
  4031f5:	10c152        	addi	a5, a1, 16
  4031f8:	a221b2        	l32i	a11, a1, 0x288
  4031fb:	a421a2        	l32i	a10, a1, 0x290
  4031fe:	80c5c0        	add	a12, a5, a12
  403201:	0c7a65        	call8	40f9a8 <__sprint_r>
  403204:	758a56        	bnez	a10, 403960 <_vfprintf_r+0x2f10>
  403207:	f4a162        	movi	a6, 0x1f4
  40320a:	806160        	add	a6, a1, a6
  40320d:	a06162        	s32i	a6, a1, 0x280
  403210:	962122        	l32i	a2, a1, 0x258
  403213:	a72192        	l32i	a9, a1, 0x29c
  403216:	a12162        	l32i	a6, a1, 0x284
  403219:	202920        	or	a2, a9, a2
  40321c:	045060        	extui	a5, a6, 0, 1
  40321f:	10c182        	addi	a8, a1, 16
  403222:	202250        	or	a2, a2, a5
  403225:	02d832        	addmi	a3, a8, 0x200
  403228:	8f2142        	l32i	a4, a1, 0x23c
  40322b:	622216        	beqz	a2, 403851 <_vfprintf_r+0x2e01>
  40322e:	af2122        	l32i	a2, a1, 0x2bc
  403231:	a02182        	l32i	a8, a1, 0x280
  403234:	205220        	or	a5, a2, a2
  403237:	1829      	s32i.n	a2, a8, 4
  403239:	224a      	add.n	a2, a2, a4
  40323b:	b329      	s32i.n	a2, a3, 44
  40323d:	a328      	l32i.n	a2, a3, 40
  40323f:	b32192        	l32i	a9, a1, 0x2cc
  403242:	221b      	addi.n	a2, a2, 1
  403244:	0899      	s32i.n	a9, a8, 0
  403246:	a329      	s32i.n	a2, a3, 40
  403248:	0482e6        	bgei	a2, 8, 403250 <_vfprintf_r+0x2800>
  40324b:	288b      	addi.n	a2, a8, 8
  40324d:	000686        	j	40326b <_vfprintf_r+0x281b>
  403250:	24a2c2        	movi	a12, 0x224
  403253:	10c162        	addi	a6, a1, 16
  403256:	a221b2        	l32i	a11, a1, 0x288
  403259:	a421a2        	l32i	a10, a1, 0x290
  40325c:	80c6c0        	add	a12, a6, a12
  40325f:	0c74a5        	call8	40f9a8 <__sprint_r>
  403262:	6faa56        	bnez	a10, 403960 <_vfprintf_r+0x2f10>
  403265:	f4a182        	movi	a8, 0x1f4
  403268:	802180        	add	a2, a1, a8
  40326b:	962132        	l32i	a3, a1, 0x258
  40326e:	06e3d6        	bgez	a3, 4032e0 <_vfprintf_r+0x2890>
  403271:	603030        	neg	a3, a3
  403274:	207220        	or	a7, a2, a2
  403277:	051c      	movi.n	a5, 16
  403279:	000a46        	j	4032a6 <_vfprintf_r+0x2856>
  40327c:	10c882        	addi	a8, a8, 16
  40327f:	1759      	s32i.n	a5, a7, 4
  403281:	b689      	s32i.n	a8, a6, 44
  403283:	a649      	s32i.n	a4, a6, 40
  403285:	1884a6        	blti	a4, 8, 4032a1 <_vfprintf_r+0x2851>
  403288:	34a2c2        	movi	a12, 0x234
  40328b:	a221b2        	l32i	a11, a1, 0x288
  40328e:	a421a2        	l32i	a10, a1, 0x290
  403291:	cc1a      	add.n	a12, a12, a1
  403293:	0c7165        	call8	40f9a8 <__sprint_r>
  403296:	6c6a56        	bnez	a10, 403960 <_vfprintf_r+0x2f10>
  403299:	e4a122        	movi	a2, 0x1e4
  40329c:	10c192        	addi	a9, a1, 16
  40329f:	292a      	add.n	a2, a9, a2
  4032a1:	f0c332        	addi	a3, a3, -16
  4032a4:	027d      	mov.n	a7, a2
  4032a6:	10c1a2        	addi	a10, a1, 16
  4032a9:	02da62        	addmi	a6, a10, 0x200
  4032ac:	f3a391        	l32r	a9, 400138 <_init-0x258>
  4032af:	a648      	l32i.n	a4, a6, 40
  4032b1:	0799      	s32i.n	a9, a7, 0
  4032b3:	b688      	l32i.n	a8, a6, 44
  4032b5:	441b      	addi.n	a4, a4, 1
  4032b7:	228b      	addi.n	a2, a2, 8
  4032b9:	bf2537        	blt	a5, a3, 40327c <_vfprintf_r+0x282c>
  4032bc:	1739      	s32i.n	a3, a7, 4
  4032be:	338a      	add.n	a3, a3, a8
  4032c0:	b639      	s32i.n	a3, a6, 44
  4032c2:	a649      	s32i.n	a4, a6, 40
  4032c4:	1884a6        	blti	a4, 8, 4032e0 <_vfprintf_r+0x2890>
  4032c7:	24a2c2        	movi	a12, 0x224
  4032ca:	caca      	add.n	a12, a10, a12
  4032cc:	a221b2        	l32i	a11, a1, 0x288
  4032cf:	a421a2        	l32i	a10, a1, 0x290
  4032d2:	0c6d65        	call8	40f9a8 <__sprint_r>
  4032d5:	687a56        	bnez	a10, 403960 <_vfprintf_r+0x2f10>
  4032d8:	e4a122        	movi	a2, 0x1e4
  4032db:	10c1b2        	addi	a11, a1, 16
  4032de:	2b2a      	add.n	a2, a11, a2
  4032e0:	a32132        	l32i	a3, a1, 0x28c
  4032e3:	a72142        	l32i	a4, a1, 0x29c
  4032e6:	10c152        	addi	a5, a1, 16
  4032e9:	0239      	s32i.n	a3, a2, 0
  4032eb:	1249      	s32i.n	a4, a2, 4
  4032ed:	8f2132        	l32i	a3, a1, 0x23c
  4032f0:	02d542        	addmi	a4, a5, 0x200
  4032f3:	a72162        	l32i	a6, a1, 0x29c
  4032f6:	014886        	j	40381c <_vfprintf_r+0x2dcc>
  4032f9:	a72182        	l32i	a8, a1, 0x29c
  4032fc:	434280        	min	a4, a2, a8
  4032ff:	3a14a6        	blti	a4, 1, 40333d <_vfprintf_r+0x28ed>
  403302:	646a      	add.n	a6, a4, a6
  403304:	b769      	s32i.n	a6, a7, 44
  403306:	a768      	l32i.n	a6, a7, 40
  403308:	a02192        	l32i	a9, a1, 0x280
  40330b:	a32182        	l32i	a8, a1, 0x28c
  40330e:	661b      	addi.n	a6, a6, 1
  403310:	0989      	s32i.n	a8, a9, 0
  403312:	1949      	s32i.n	a4, a9, 4
  403314:	a769      	s32i.n	a6, a7, 40
  403316:	0786e6        	bgei	a6, 8, 403321 <_vfprintf_r+0x28d1>
  403319:	998b      	addi.n	a9, a9, 8
  40331b:	a06192        	s32i	a9, a1, 0x280
  40331e:	0006c6        	j	40333d <_vfprintf_r+0x28ed>
  403321:	24a2c2        	movi	a12, 0x224
  403324:	10c192        	addi	a9, a1, 16
  403327:	a221b2        	l32i	a11, a1, 0x288
  40332a:	a421a2        	l32i	a10, a1, 0x290
  40332d:	c9ca      	add.n	a12, a9, a12
  40332f:	0c67a5        	call8	40f9a8 <__sprint_r>
  403332:	62aa56        	bnez	a10, 403960 <_vfprintf_r+0x2f10>
  403335:	f4a182        	movi	a8, 0x1f4
  403338:	818a      	add.n	a8, a1, a8
  40333a:	a06182        	s32i	a8, a1, 0x280
  40333d:	060c      	movi.n	a6, 0
  40333f:	534460        	max	a4, a4, a6
  403342:	c04240        	sub	a4, a2, a4
  403345:	081c      	movi.n	a8, 16
  403347:	3b14e6        	bgei	a4, 1, 403386 <_vfprintf_r+0x2936>
  40334a:	001f86        	j	4033cc <_vfprintf_r+0x297c>
  40334d:	00          	.byte 00
  40334e:	00          	.byte 00
  40334f:	00          	.byte 00
  403350:	a021c2        	l32i	a12, a1, 0x280
  403353:	10caa2        	addi	a10, a10, 16
  403356:	0cb9      	s32i.n	a11, a12, 0
  403358:	1c89      	s32i.n	a8, a12, 4
  40335a:	b7a9      	s32i.n	a10, a7, 44
  40335c:	a769      	s32i.n	a6, a7, 40
  40335e:	1e86a6        	blti	a6, 8, 403380 <_vfprintf_r+0x2930>
  403361:	34a2c2        	movi	a12, 0x234
  403364:	a221b2        	l32i	a11, a1, 0x288
  403367:	a421a2        	l32i	a10, a1, 0x290
  40336a:	cc1a      	add.n	a12, a12, a1
  40336c:	b86182        	s32i	a8, a1, 0x2e0
  40336f:	0c63a5        	call8	40f9a8 <__sprint_r>
  403372:	b82182        	l32i	a8, a1, 0x2e0
  403375:	5e7a56        	bnez	a10, 403960 <_vfprintf_r+0x2f10>
  403378:	e4a192        	movi	a9, 0x1e4
  40337b:	10c1d2        	addi	a13, a1, 16
  40337e:	9d9a      	add.n	a9, a13, a9
  403380:	f0c442        	addi	a4, a4, -16
  403383:	a06192        	s32i	a9, a1, 0x280
  403386:	10c1e2        	addi	a14, a1, 16
  403389:	02de72        	addmi	a7, a14, 0x200
  40338c:	a021b2        	l32i	a11, a1, 0x280
  40338f:	a768      	l32i.n	a6, a7, 40
  403391:	9b8b      	addi.n	a9, a11, 8
  403393:	b7a8      	l32i.n	a10, a7, 44
  403395:	661b      	addi.n	a6, a6, 1
  403397:	f368b1        	l32r	a11, 400138 <_init-0x258>
  40339a:	b22847        	blt	a8, a4, 403350 <_vfprintf_r+0x2900>
  40339d:	a02182        	l32i	a8, a1, 0x280
  4033a0:	a769      	s32i.n	a6, a7, 40
  4033a2:	1849      	s32i.n	a4, a8, 4
  4033a4:	44aa      	add.n	a4, a4, a10
  4033a6:	08b9      	s32i.n	a11, a8, 0
  4033a8:	b749      	s32i.n	a4, a7, 44
  4033aa:	a06192        	s32i	a9, a1, 0x280
  4033ad:	1b86a6        	blti	a6, 8, 4033cc <_vfprintf_r+0x297c>
  4033b0:	24a2c2        	movi	a12, 0x224
  4033b3:	a221b2        	l32i	a11, a1, 0x288
  4033b6:	a421a2        	l32i	a10, a1, 0x290
  4033b9:	ceca      	add.n	a12, a14, a12
  4033bb:	0c5ee5        	call8	40f9a8 <__sprint_r>
  4033be:	59ea56        	bnez	a10, 403960 <_vfprintf_r+0x2f10>
  4033c1:	e4a142        	movi	a4, 0x1e4
  4033c4:	10c192        	addi	a9, a1, 16
  4033c7:	994a      	add.n	a9, a9, a4
  4033c9:	a06192        	s32i	a9, a1, 0x280
  4033cc:	a32142        	l32i	a4, a1, 0x28c
  4033cf:	a12162        	l32i	a6, a1, 0x284
  4033d2:	242a      	add.n	a2, a4, a2
  4033d4:	e4a142        	movi	a4, 0x1e4
  4033d7:	0266a7        	bbci	a6, 10, 4033dd <_vfprintf_r+0x298d>
  4033da:	005386        	j	40352c <_vfprintf_r+0x2adc>
  4033dd:	005a06        	j	403549 <_vfprintf_r+0x2af9>
  4033e0:	438c      	beqz.n	a3, 4033e8 <_vfprintf_r+0x2998>
  4033e2:	330b      	addi.n	a3, a3, -1
  4033e4:	000286        	j	4033f2 <_vfprintf_r+0x29a2>
  4033e7:	00          	.byte 00
  4033e8:	ad2182        	l32i	a8, a1, 0x2b4
  4033eb:	550b      	addi.n	a5, a5, -1
  4033ed:	880b      	addi.n	a8, a8, -1
  4033ef:	ad6182        	s32i	a8, a1, 0x2b4
  4033f2:	a02192        	l32i	a9, a1, 0x280
  4033f5:	b52162        	l32i	a6, a1, 0x2d4
  4033f8:	b12182        	l32i	a8, a1, 0x2c4
  4033fb:	0969      	s32i.n	a6, a9, 0
  4033fd:	8f2162        	l32i	a6, a1, 0x23c
  403400:	1989      	s32i.n	a8, a9, 4
  403402:	668a      	add.n	a6, a6, a8
  403404:	8f6162        	s32i	a6, a1, 0x23c
  403407:	8e2162        	l32i	a6, a1, 0x238
  40340a:	10c192        	addi	a9, a1, 16
  40340d:	661b      	addi.n	a6, a6, 1
  40340f:	8e6162        	s32i	a6, a1, 0x238
  403412:	02d972        	addmi	a7, a9, 0x200
  403415:	0b86e6        	bgei	a6, 8, 403424 <_vfprintf_r+0x29d4>
  403418:	a02162        	l32i	a6, a1, 0x280
  40341b:	668b      	addi.n	a6, a6, 8
  40341d:	a06162        	s32i	a6, a1, 0x280
  403420:	0006c6        	j	40343f <_vfprintf_r+0x29ef>
  403423:	00          	.byte 00
  403424:	34a2c2        	movi	a12, 0x234
  403427:	a221b2        	l32i	a11, a1, 0x288
  40342a:	a421a2        	l32i	a10, a1, 0x290
  40342d:	80cc10        	add	a12, a12, a1
  403430:	0c5765        	call8	40f9a8 <__sprint_r>
  403433:	529a56        	bnez	a10, 403960 <_vfprintf_r+0x2f10>
  403436:	10c182        	addi	a8, a1, 16
  403439:	808840        	add	a8, a8, a4
  40343c:	a06182        	s32i	a8, a1, 0x280
  40343f:	a32192        	l32i	a9, a1, 0x28c
  403442:	a72182        	l32i	a8, a1, 0x29c
  403445:	806980        	add	a6, a9, a8
  403448:	ad2192        	l32i	a9, a1, 0x2b4
  40344b:	c06620        	sub	a6, a6, a2
  40344e:	000972        	l8ui	a7, a9, 0
  403451:	436760        	min	a6, a7, a6
  403454:	3d16a6        	blti	a6, 1, 403495 <_vfprintf_r+0x2a45>
  403457:	8f2172        	l32i	a7, a1, 0x23c
  40345a:	a02192        	l32i	a9, a1, 0x280
  40345d:	767a      	add.n	a7, a6, a7
  40345f:	8f6172        	s32i	a7, a1, 0x23c
  403462:	8e2172        	l32i	a7, a1, 0x238
  403465:	0929      	s32i.n	a2, a9, 0
  403467:	771b      	addi.n	a7, a7, 1
  403469:	1969      	s32i.n	a6, a9, 4
  40346b:	8e6172        	s32i	a7, a1, 0x238
  40346e:	0787e6        	bgei	a7, 8, 403479 <_vfprintf_r+0x2a29>
  403471:	998b      	addi.n	a9, a9, 8
  403473:	a06192        	s32i	a9, a1, 0x280
  403476:	0006c6        	j	403495 <_vfprintf_r+0x2a45>
  403479:	34a2c2        	movi	a12, 0x234
  40347c:	a221b2        	l32i	a11, a1, 0x288
  40347f:	a421a2        	l32i	a10, a1, 0x290
  403482:	cc1a      	add.n	a12, a12, a1
  403484:	201110        	or	a1, a1, a1
  403487:	0c5225        	call8	40f9a8 <__sprint_r>
  40348a:	4d2a56        	bnez	a10, 403960 <_vfprintf_r+0x2f10>
  40348d:	10c182        	addi	a8, a1, 16
  403490:	884a      	add.n	a8, a8, a4
  403492:	a06182        	s32i	a8, a1, 0x280
  403495:	ad2192        	l32i	a9, a1, 0x2b4
  403498:	070c      	movi.n	a7, 0
  40349a:	536670        	max	a6, a6, a7
  40349d:	000972        	l8ui	a7, a9, 0
  4034a0:	091c      	movi.n	a9, 16
  4034a2:	c06760        	sub	a6, a7, a6
  4034a5:	3816e6        	bgei	a6, 1, 4034e1 <_vfprintf_r+0x2a91>
  4034a8:	001e06        	j	403524 <_vfprintf_r+0x2ad4>
  4034ab:	00          	.byte 00
  4034ac:	a021d2        	l32i	a13, a1, 0x280
  4034af:	10caa2        	addi	a10, a10, 16
  4034b2:	006dc2        	s32i	a12, a13, 0
  4034b5:	016d92        	s32i	a9, a13, 4
  4034b8:	b8a9      	s32i.n	a10, a8, 44
  4034ba:	a879      	s32i.n	a7, a8, 40
  4034bc:	1b87a6        	blti	a7, 8, 4034db <_vfprintf_r+0x2a8b>
  4034bf:	34a2c2        	movi	a12, 0x234
  4034c2:	a221b2        	l32i	a11, a1, 0x288
  4034c5:	a421a2        	l32i	a10, a1, 0x290
  4034c8:	cc1a      	add.n	a12, a12, a1
  4034ca:	b96192        	s32i	a9, a1, 0x2e4
  4034cd:	0c4da5        	call8	40f9a8 <__sprint_r>
  4034d0:	b92192        	l32i	a9, a1, 0x2e4
  4034d3:	489a56        	bnez	a10, 403960 <_vfprintf_r+0x2f10>
  4034d6:	10c1e2        	addi	a14, a1, 16
  4034d9:	be4a      	add.n	a11, a14, a4
  4034db:	f0c662        	addi	a6, a6, -16
  4034de:	a061b2        	s32i	a11, a1, 0x280
  4034e1:	10c1a2        	addi	a10, a1, 16
  4034e4:	02da82        	addmi	a8, a10, 0x200
  4034e7:	a021c2        	l32i	a12, a1, 0x280
  4034ea:	a878      	l32i.n	a7, a8, 40
  4034ec:	bc8b      	addi.n	a11, a12, 8
  4034ee:	b8a8      	l32i.n	a10, a8, 44
  4034f0:	771b      	addi.n	a7, a7, 1
  4034f2:	f311c1        	l32r	a12, 400138 <_init-0x258>
  4034f5:	b32967        	blt	a9, a6, 4034ac <_vfprintf_r+0x2a5c>
  4034f8:	a02192        	l32i	a9, a1, 0x280
  4034fb:	a879      	s32i.n	a7, a8, 40
  4034fd:	1969      	s32i.n	a6, a9, 4
  4034ff:	66aa      	add.n	a6, a6, a10
  403501:	09c9      	s32i.n	a12, a9, 0
  403503:	b869      	s32i.n	a6, a8, 44
  403505:	a061b2        	s32i	a11, a1, 0x280
  403508:	1887a6        	blti	a7, 8, 403524 <_vfprintf_r+0x2ad4>
  40350b:	34a2c2        	movi	a12, 0x234
  40350e:	a221b2        	l32i	a11, a1, 0x288
  403511:	a421a2        	l32i	a10, a1, 0x290
  403514:	cc1a      	add.n	a12, a12, a1
  403516:	0c4925        	call8	40f9a8 <__sprint_r>
  403519:	443a56        	bnez	a10, 403960 <_vfprintf_r+0x2f10>
  40351c:	10c162        	addi	a6, a1, 16
  40351f:	664a      	add.n	a6, a6, a4
  403521:	a06162        	s32i	a6, a1, 0x280
  403524:	ad2182        	l32i	a8, a1, 0x2b4
  403527:	000862        	l8ui	a6, a8, 0
  40352a:	226a      	add.n	a2, a2, a6
  40352c:	316f50        	srai	a6, a5, 31
  40352f:	c06650        	sub	a6, a6, a5
  403532:	eaa696        	bltz	a6, 4033e0 <_vfprintf_r+0x2990>
  403535:	316f30        	srai	a6, a3, 31
  403538:	c06630        	sub	a6, a6, a3
  40353b:	ea1696        	bltz	a6, 4033e0 <_vfprintf_r+0x2990>
  40353e:	a32192        	l32i	a9, a1, 0x28c
  403541:	a72142        	l32i	a4, a1, 0x29c
  403544:	394a      	add.n	a3, a9, a4
  403546:	632230        	minu	a2, a2, a3
  403549:	962132        	l32i	a3, a1, 0x258
  40354c:	a72152        	l32i	a5, a1, 0x29c
  40354f:	052357        	blt	a3, a5, 403558 <_vfprintf_r+0x2b08>
  403552:	a12162        	l32i	a6, a1, 0x284
  403555:	4e6607        	bbci	a6, 0, 4035a7 <_vfprintf_r+0x2b57>
  403558:	a02182        	l32i	a8, a1, 0x280
  40355b:	af2132        	l32i	a3, a1, 0x2bc
  40355e:	af2162        	l32i	a6, a1, 0x2bc
  403561:	1839      	s32i.n	a3, a8, 4
  403563:	8f2132        	l32i	a3, a1, 0x23c
  403566:	b32192        	l32i	a9, a1, 0x2cc
  403569:	336a      	add.n	a3, a3, a6
  40356b:	8f6132        	s32i	a3, a1, 0x23c
  40356e:	8e2132        	l32i	a3, a1, 0x238
  403571:	10c152        	addi	a5, a1, 16
  403574:	331b      	addi.n	a3, a3, 1
  403576:	0899      	s32i.n	a9, a8, 0
  403578:	8e6132        	s32i	a3, a1, 0x238
  40357b:	02d542        	addmi	a4, a5, 0x200
  40357e:	0783e6        	bgei	a3, 8, 403589 <_vfprintf_r+0x2b39>
  403581:	888b      	addi.n	a8, a8, 8
  403583:	a06182        	s32i	a8, a1, 0x280
  403586:	000746        	j	4035a7 <_vfprintf_r+0x2b57>
  403589:	24a2c2        	movi	a12, 0x224
  40358c:	10c182        	addi	a8, a1, 16
  40358f:	a221b2        	l32i	a11, a1, 0x288
  403592:	a421a2        	l32i	a10, a1, 0x290
  403595:	80c8c0        	add	a12, a8, a12
  403598:	0c40e5        	call8	40f9a8 <__sprint_r>
  40359b:	3c1a56        	bnez	a10, 403960 <_vfprintf_r+0x2f10>
  40359e:	f4a192        	movi	a9, 0x1f4
  4035a1:	809190        	add	a9, a1, a9
  4035a4:	a06192        	s32i	a9, a1, 0x280
  4035a7:	a32142        	l32i	a4, a1, 0x28c
  4035aa:	a72152        	l32i	a5, a1, 0x29c
  4035ad:	803450        	add	a3, a4, a5
  4035b0:	c04320        	sub	a4, a3, a2
  4035b3:	962132        	l32i	a3, a1, 0x258
  4035b6:	c03530        	sub	a3, a5, a3
  4035b9:	433340        	min	a3, a3, a4
  4035bc:	4513a6        	blti	a3, 1, 403605 <_vfprintf_r+0x2bb5>
  4035bf:	8f2152        	l32i	a5, a1, 0x23c
  4035c2:	a02182        	l32i	a8, a1, 0x280
  4035c5:	10c162        	addi	a6, a1, 16
  4035c8:	0829      	s32i.n	a2, a8, 0
  4035ca:	235a      	add.n	a2, a3, a5
  4035cc:	8f6122        	s32i	a2, a1, 0x23c
  4035cf:	8e2122        	l32i	a2, a1, 0x238
  4035d2:	1839      	s32i.n	a3, a8, 4
  4035d4:	221b      	addi.n	a2, a2, 1
  4035d6:	8e6122        	s32i	a2, a1, 0x238
  4035d9:	02d642        	addmi	a4, a6, 0x200
  4035dc:	0982e6        	bgei	a2, 8, 4035e9 <_vfprintf_r+0x2b99>
  4035df:	888b      	addi.n	a8, a8, 8
  4035e1:	a06182        	s32i	a8, a1, 0x280
  4035e4:	000746        	j	403605 <_vfprintf_r+0x2bb5>
  4035e7:	00          	.byte 00
  4035e8:	00          	.byte 00
  4035e9:	24a2c2        	movi	a12, 0x224
  4035ec:	10c192        	addi	a9, a1, 16
  4035ef:	a221b2        	l32i	a11, a1, 0x288
  4035f2:	a421a2        	l32i	a10, a1, 0x290
  4035f5:	c9ca      	add.n	a12, a9, a12
  4035f7:	0c3b25        	call8	40f9a8 <__sprint_r>
  4035fa:	362a56        	bnez	a10, 403960 <_vfprintf_r+0x2f10>
  4035fd:	f4a142        	movi	a4, 0x1f4
  403600:	414a      	add.n	a4, a1, a4
  403602:	a06142        	s32i	a4, a1, 0x280
  403605:	020c      	movi.n	a2, 0
  403607:	533320        	max	a3, a3, a2
  40360a:	a72152        	l32i	a5, a1, 0x29c
  40360d:	962122        	l32i	a2, a1, 0x258
  403610:	c02520        	sub	a2, a5, a2
  403613:	c02230        	sub	a2, a2, a3
  403616:	051c      	movi.n	a5, 16
  403618:	3112e6        	bgei	a2, 1, 40364d <_vfprintf_r+0x2bfd>
  40361b:	008c86        	j	403851 <_vfprintf_r+0x2e01>
  40361e:	00          	.byte 00
  40361f:	00          	.byte 00
  403620:	00          	.byte 00
  403621:	10c772        	addi	a7, a7, 16
  403624:	1959      	s32i.n	a5, a9, 4
  403626:	b479      	s32i.n	a7, a4, 44
  403628:	a439      	s32i.n	a3, a4, 40
  40362a:	1983a6        	blti	a3, 8, 403647 <_vfprintf_r+0x2bf7>
  40362d:	34a2c2        	movi	a12, 0x234
  403630:	a221b2        	l32i	a11, a1, 0x288
  403633:	a421a2        	l32i	a10, a1, 0x290
  403636:	cc1a      	add.n	a12, a12, a1
  403638:	0c36e5        	call8	40f9a8 <__sprint_r>
  40363b:	321a56        	bnez	a10, 403960 <_vfprintf_r+0x2f10>
  40363e:	e4a162        	movi	a6, 0x1e4
  403641:	10c1a2        	addi	a10, a1, 16
  403644:	806a60        	add	a6, a10, a6
  403647:	f0c222        	addi	a2, a2, -16
  40364a:	a06162        	s32i	a6, a1, 0x280
  40364d:	a02182        	l32i	a8, a1, 0x280
  403650:	10c1b2        	addi	a11, a1, 16
  403653:	02db42        	addmi	a4, a11, 0x200
  403656:	688b      	addi.n	a6, a8, 8
  403658:	a02192        	l32i	a9, a1, 0x280
  40365b:	f2b781        	l32r	a8, 400138 <_init-0x258>
  40365e:	a438      	l32i.n	a3, a4, 40
  403660:	0989      	s32i.n	a8, a9, 0
  403662:	b478      	l32i.n	a7, a4, 44
  403664:	331b      	addi.n	a3, a3, 1
  403666:	b72527        	blt	a5, a2, 403621 <_vfprintf_r+0x2bd1>
  403669:	1929      	s32i.n	a2, a9, 4
  40366b:	227a      	add.n	a2, a2, a7
  40366d:	b429      	s32i.n	a2, a4, 44
  40366f:	a439      	s32i.n	a3, a4, 40
  403671:	a06162        	s32i	a6, a1, 0x280
  403674:	0283e6        	bgei	a3, 8, 40367a <_vfprintf_r+0x2c2a>
  403677:	007586        	j	403851 <_vfprintf_r+0x2e01>
  40367a:	24a2c2        	movi	a12, 0x224
  40367d:	cbca      	add.n	a12, a11, a12
  40367f:	a421a2        	l32i	a10, a1, 0x290
  403682:	a221b2        	l32i	a11, a1, 0x288
  403685:	0c3225        	call8	40f9a8 <__sprint_r>
  403688:	2d4a56        	bnez	a10, 403960 <_vfprintf_r+0x2f10>
  40368b:	e4a122        	movi	a2, 0x1e4
  40368e:	10c132        	addi	a3, a1, 16
  403691:	332a      	add.n	a3, a3, a2
  403693:	a06132        	s32i	a3, a1, 0x280
  403696:	006dc6        	j	403851 <_vfprintf_r+0x2e01>
  403699:	a02142        	l32i	a4, a1, 0x280
  40369c:	a738      	l32i.n	a3, a7, 40
  40369e:	a72152        	l32i	a5, a1, 0x29c
  4036a1:	248b      	addi.n	a2, a4, 8
  4036a3:	661b      	addi.n	a6, a6, 1
  4036a5:	331b      	addi.n	a3, a3, 1
  4036a7:	140c      	movi.n	a4, 1
  4036a9:	0825e6        	bgei	a5, 2, 4036b5 <_vfprintf_r+0x2c65>
  4036ac:	a12182        	l32i	a8, a1, 0x284
  4036af:	02e807        	bbsi	a8, 0, 4036b5 <_vfprintf_r+0x2c65>
  4036b2:	004c86        	j	4037e8 <_vfprintf_r+0x2d98>
  4036b5:	a02192        	l32i	a9, a1, 0x280
  4036b8:	a32182        	l32i	a8, a1, 0x28c
  4036bb:	1949      	s32i.n	a4, a9, 4
  4036bd:	0989      	s32i.n	a8, a9, 0
  4036bf:	8f6162        	s32i	a6, a1, 0x23c
  4036c2:	10c192        	addi	a9, a1, 16
  4036c5:	8e6132        	s32i	a3, a1, 0x238
  4036c8:	02d942        	addmi	a4, a9, 0x200
  4036cb:	1583a6        	blti	a3, 8, 4036e4 <_vfprintf_r+0x2c94>
  4036ce:	24a2c2        	movi	a12, 0x224
  4036d1:	a221b2        	l32i	a11, a1, 0x288
  4036d4:	a421a2        	l32i	a10, a1, 0x290
  4036d7:	c9ca      	add.n	a12, a9, a12
  4036d9:	0c2ce5        	call8	40f9a8 <__sprint_r>
  4036dc:	280a56        	bnez	a10, 403960 <_vfprintf_r+0x2f10>
  4036df:	f4a1a2        	movi	a10, 0x1f4
  4036e2:	21aa      	add.n	a2, a1, a10
  4036e4:	b32132        	l32i	a3, a1, 0x2cc
  4036e7:	af2162        	l32i	a6, a1, 0x2bc
  4036ea:	0239      	s32i.n	a3, a2, 0
  4036ec:	8f2132        	l32i	a3, a1, 0x23c
  4036ef:	af2142        	l32i	a4, a1, 0x2bc
  4036f2:	336a      	add.n	a3, a3, a6
  4036f4:	8f6132        	s32i	a3, a1, 0x23c
  4036f7:	8e2132        	l32i	a3, a1, 0x238
  4036fa:	1249      	s32i.n	a4, a2, 4
  4036fc:	331b      	addi.n	a3, a3, 1
  4036fe:	10c152        	addi	a5, a1, 16
  403701:	8e6132        	s32i	a3, a1, 0x238
  403704:	02d542        	addmi	a4, a5, 0x200
  403707:	228b      	addi.n	a2, a2, 8
  403709:	1883a6        	blti	a3, 8, 403725 <_vfprintf_r+0x2cd5>
  40370c:	24a2c2        	movi	a12, 0x224
  40370f:	10c182        	addi	a8, a1, 16
  403712:	a221b2        	l32i	a11, a1, 0x288
  403715:	a421a2        	l32i	a10, a1, 0x290
  403718:	c8ca      	add.n	a12, a8, a12
  40371a:	0c28e5        	call8	40f9a8 <__sprint_r>
  40371d:	23fa56        	bnez	a10, 403960 <_vfprintf_r+0x2f10>
  403720:	f4a192        	movi	a9, 0x1f4
  403723:	219a      	add.n	a2, a1, a9
  403725:	a72142        	l32i	a4, a1, 0x29c
  403728:	f26dc1        	l32r	a12, 4000dc <_init-0x2b4>
  40372b:	f26cd1        	l32r	a13, 4000dc <_init-0x2b4>
  40372e:	aa21a2        	l32i	a10, a1, 0x2a8
  403731:	ab21b2        	l32i	a11, a1, 0x2ac
  403734:	ffc432        	addi	a3, a4, -1
  403737:	0f98a5        	call8	4130c0 <__eqdf2>
  40373a:	046a16        	beqz	a10, 403784 <_vfprintf_r+0x2d34>
  40373d:	10c152        	addi	a5, a1, 16
  403740:	8f2172        	l32i	a7, a1, 0x23c
  403743:	02d562        	addmi	a6, a5, 0x200
  403746:	a32182        	l32i	a8, a1, 0x28c
  403749:	8e2152        	l32i	a5, a1, 0x238
  40374c:	a72192        	l32i	a9, a1, 0x29c
  40374f:	016232        	s32i	a3, a2, 4
  403752:	370b      	addi.n	a3, a7, -1
  403754:	551b      	addi.n	a5, a5, 1
  403756:	481b      	addi.n	a4, a8, 1
  403758:	339a      	add.n	a3, a3, a9
  40375a:	0249      	s32i.n	a4, a2, 0
  40375c:	b639      	s32i.n	a3, a6, 44
  40375e:	a659      	s32i.n	a5, a6, 40
  403760:	228b      	addi.n	a2, a2, 8
  403762:	0285e6        	bgei	a5, 8, 403768 <_vfprintf_r+0x2d18>
  403765:	0026c6        	j	403804 <_vfprintf_r+0x2db4>
  403768:	24a2c2        	movi	a12, 0x224
  40376b:	10c1a2        	addi	a10, a1, 16
  40376e:	caca      	add.n	a12, a10, a12
  403770:	a221b2        	l32i	a11, a1, 0x288
  403773:	a421a2        	l32i	a10, a1, 0x290
  403776:	0c2325        	call8	40f9a8 <__sprint_r>
  403779:	1e3a56        	bnez	a10, 403960 <_vfprintf_r+0x2f10>
  40377c:	f4a122        	movi	a2, 0x1f4
  40377f:	212a      	add.n	a2, a1, a2
  403781:	001fc6        	j	403804 <_vfprintf_r+0x2db4>
  403784:	061c      	movi.n	a6, 16
  403786:	2f13e6        	bgei	a3, 1, 4037b9 <_vfprintf_r+0x2d69>
  403789:	001dc6        	j	403804 <_vfprintf_r+0x2db4>
  40378c:	10c882        	addi	a8, a8, 16
  40378f:	016262        	s32i	a6, a2, 4
  403792:	0b6582        	s32i	a8, a5, 44
  403795:	0a6542        	s32i	a4, a5, 40
  403798:	1884a6        	blti	a4, 8, 4037b4 <_vfprintf_r+0x2d64>
  40379b:	34a2c2        	movi	a12, 0x234
  40379e:	a221b2        	l32i	a11, a1, 0x288
  4037a1:	a421a2        	l32i	a10, a1, 0x290
  4037a4:	cc1a      	add.n	a12, a12, a1
  4037a6:	0c2025        	call8	40f9a8 <__sprint_r>
  4037a9:	1b3a56        	bnez	a10, 403960 <_vfprintf_r+0x2f10>
  4037ac:	e4a172        	movi	a7, 0x1e4
  4037af:	10c1b2        	addi	a11, a1, 16
  4037b2:	7b7a      	add.n	a7, a11, a7
  4037b4:	f0c332        	addi	a3, a3, -16
  4037b7:	072d      	mov.n	a2, a7
  4037b9:	10c1c2        	addi	a12, a1, 16
  4037bc:	02dc52        	addmi	a5, a12, 0x200
  4037bf:	f25e91        	l32r	a9, 400138 <_init-0x258>
  4037c2:	a548      	l32i.n	a4, a5, 40
  4037c4:	0299      	s32i.n	a9, a2, 0
  4037c6:	b588      	l32i.n	a8, a5, 44
  4037c8:	441b      	addi.n	a4, a4, 1
  4037ca:	728b      	addi.n	a7, a2, 8
  4037cc:	bc2637        	blt	a6, a3, 40378c <_vfprintf_r+0x2d3c>
  4037cf:	1239      	s32i.n	a3, a2, 4
  4037d1:	338a      	add.n	a3, a3, a8
  4037d3:	b539      	s32i.n	a3, a5, 44
  4037d5:	a549      	s32i.n	a4, a5, 40
  4037d7:	072d      	mov.n	a2, a7
  4037d9:	2784a6        	blti	a4, 8, 403804 <_vfprintf_r+0x2db4>
  4037dc:	24a2c2        	movi	a12, 0x224
  4037df:	10c1d2        	addi	a13, a1, 16
  4037e2:	cdca      	add.n	a12, a13, a12
  4037e4:	ffe206        	j	403770 <_vfprintf_r+0x2d20>
  4037e7:	00          	.byte 00
  4037e8:	a02152        	l32i	a5, a1, 0x280
  4037eb:	a32182        	l32i	a8, a1, 0x28c
  4037ee:	1549      	s32i.n	a4, a5, 4
  4037f0:	0589      	s32i.n	a8, a5, 0
  4037f2:	b769      	s32i.n	a6, a7, 44
  4037f4:	a739      	s32i.n	a3, a7, 40
  4037f6:	0a83a6        	blti	a3, 8, 403804 <_vfprintf_r+0x2db4>
  4037f9:	24a2c2        	movi	a12, 0x224
  4037fc:	10c192        	addi	a9, a1, 16
  4037ff:	c9ca      	add.n	a12, a9, a12
  403801:	ffdac6        	j	403770 <_vfprintf_r+0x2d20>
  403804:	47a2a2        	movi	a10, 0x247
  403807:	31aa      	add.n	a3, a1, a10
  403809:	0239      	s32i.n	a3, a2, 0
  40380b:	b62132        	l32i	a3, a1, 0x2d8
  40380e:	10c152        	addi	a5, a1, 16
  403811:	1239      	s32i.n	a3, a2, 4
  403813:	b62162        	l32i	a6, a1, 0x2d8
  403816:	8f2132        	l32i	a3, a1, 0x23c
  403819:	02d542        	addmi	a4, a5, 0x200
  40381c:	336a      	add.n	a3, a3, a6
  40381e:	8f6132        	s32i	a3, a1, 0x23c
  403821:	8e2132        	l32i	a3, a1, 0x238
  403824:	331b      	addi.n	a3, a3, 1
  403826:	8e6132        	s32i	a3, a1, 0x238
  403829:	0883e6        	bgei	a3, 8, 403835 <_vfprintf_r+0x2de5>
  40382c:	228b      	addi.n	a2, a2, 8
  40382e:	a06122        	s32i	a2, a1, 0x280
  403831:	000706        	j	403851 <_vfprintf_r+0x2e01>
  403834:	00          	.byte 00
  403835:	24a2c2        	movi	a12, 0x224
  403838:	10c182        	addi	a8, a1, 16
  40383b:	a221b2        	l32i	a11, a1, 0x288
  40383e:	a421a2        	l32i	a10, a1, 0x290
  403841:	c8ca      	add.n	a12, a8, a12
  403843:	0c1665        	call8	40f9a8 <__sprint_r>
  403846:	116a56        	bnez	a10, 403960 <_vfprintf_r+0x2f10>
  403849:	f4a192        	movi	a9, 0x1f4
  40384c:	919a      	add.n	a9, a1, a9
  40384e:	a06192        	s32i	a9, a1, 0x280
  403851:	a12122        	l32i	a2, a1, 0x284
  403854:	1ce227        	bbsi	a2, 2, 403874 <_vfprintf_r+0x2e24>
  403857:	ac2132        	l32i	a3, a1, 0x2b0
  40385a:	b02142        	l32i	a4, a1, 0x2c0
  40385d:	ae2152        	l32i	a5, a1, 0x2b8
  403860:	532340        	max	a2, a3, a4
  403863:	552a      	add.n	a5, a5, a2
  403865:	8f2122        	l32i	a2, a1, 0x23c
  403868:	ae6152        	s32i	a5, a1, 0x2b8
  40386b:	08b216        	beqz	a2, 4038fa <_vfprintf_r+0x2eaa>
  40386e:	002786        	j	403910 <_vfprintf_r+0x2ec0>
  403871:	00          	.byte 00
  403872:	00          	.byte 00
  403873:	00          	.byte 00
  403874:	ac2162        	l32i	a6, a1, 0x2b0
  403877:	b02182        	l32i	a8, a1, 0x2c0
  40387a:	041c      	movi.n	a4, 16
  40387c:	c02680        	sub	a2, a6, a8
  40387f:	3a12e6        	bgei	a2, 1, 4038bd <_vfprintf_r+0x2e6d>
  403882:	fff446        	j	403857 <_vfprintf_r+0x2e07>
  403885:	a02192        	l32i	a9, a1, 0x280
  403888:	10c662        	addi	a6, a6, 16
  40388b:	0979      	s32i.n	a7, a9, 0
  40388d:	1949      	s32i.n	a4, a9, 4
  40388f:	b569      	s32i.n	a6, a5, 44
  403891:	a539      	s32i.n	a3, a5, 40
  403893:	0783e6        	bgei	a3, 8, 40389e <_vfprintf_r+0x2e4e>
  403896:	998b      	addi.n	a9, a9, 8
  403898:	a06192        	s32i	a9, a1, 0x280
  40389b:	0006c6        	j	4038ba <_vfprintf_r+0x2e6a>
  40389e:	34a2c2        	movi	a12, 0x234
  4038a1:	a221b2        	l32i	a11, a1, 0x288
  4038a4:	a421a2        	l32i	a10, a1, 0x290
  4038a7:	cc1a      	add.n	a12, a12, a1
  4038a9:	0c0fe5        	call8	40f9a8 <__sprint_r>
  4038ac:	0b0a56        	bnez	a10, 403960 <_vfprintf_r+0x2f10>
  4038af:	e4a132        	movi	a3, 0x1e4
  4038b2:	10c152        	addi	a5, a1, 16
  4038b5:	553a      	add.n	a5, a5, a3
  4038b7:	a06152        	s32i	a5, a1, 0x280
  4038ba:	f0c222        	addi	a2, a2, -16
  4038bd:	10c162        	addi	a6, a1, 16
  4038c0:	02d652        	addmi	a5, a6, 0x200
  4038c3:	a538      	l32i.n	a3, a5, 40
  4038c5:	b568      	l32i.n	a6, a5, 44
  4038c7:	331b      	addi.n	a3, a3, 1
  4038c9:	f21a71        	l32r	a7, 400134 <_init-0x25c>
  4038cc:	b52427        	blt	a4, a2, 403885 <_vfprintf_r+0x2e35>
  4038cf:	a02182        	l32i	a8, a1, 0x280
  4038d2:	a539      	s32i.n	a3, a5, 40
  4038d4:	1829      	s32i.n	a2, a8, 4
  4038d6:	226a      	add.n	a2, a2, a6
  4038d8:	0879      	s32i.n	a7, a8, 0
  4038da:	b529      	s32i.n	a2, a5, 44
  4038dc:	0283e6        	bgei	a3, 8, 4038e2 <_vfprintf_r+0x2e92>
  4038df:	ffdd06        	j	403857 <_vfprintf_r+0x2e07>
  4038e2:	24a2c2        	movi	a12, 0x224
  4038e5:	10c192        	addi	a9, a1, 16
  4038e8:	a221b2        	l32i	a11, a1, 0x288
  4038eb:	a421a2        	l32i	a10, a1, 0x290
  4038ee:	80c9c0        	add	a12, a9, a12
  4038f1:	0c0b65        	call8	40f9a8 <__sprint_r>
  4038f4:	f5fa16        	beqz	a10, 403857 <_vfprintf_r+0x2e07>
  4038f7:	001946        	j	403960 <_vfprintf_r+0x2f10>
  4038fa:	030c      	movi.n	a3, 0
  4038fc:	8e6132        	s32i	a3, a1, 0x238
  4038ff:	a62132        	l32i	a3, a1, 0x298
  403902:	23ec      	bnez.n	a3, 403928 <_vfprintf_r+0x2ed8>
  403904:	f4a142        	movi	a4, 0x1f4
  403907:	414a      	add.n	a4, a1, a4
  403909:	a06142        	s32i	a4, a1, 0x280
  40390c:	f4b406        	j	400be0 <_vfprintf_r+0x190>
  40390f:	00          	.byte 00
  403910:	24a2c2        	movi	a12, 0x224
  403913:	10c152        	addi	a5, a1, 16
  403916:	a221b2        	l32i	a11, a1, 0x288
  403919:	a421a2        	l32i	a10, a1, 0x290
  40391c:	c5ca      	add.n	a12, a5, a12
  40391e:	0c08a5        	call8	40f9a8 <__sprint_r>
  403921:	fd5a16        	beqz	a10, 4038fa <_vfprintf_r+0x2eaa>
  403924:	000e06        	j	403960 <_vfprintf_r+0x2f10>
  403927:	00          	.byte 00
  403928:	a621b2        	l32i	a11, a1, 0x298
  40392b:	a421a2        	l32i	a10, a1, 0x290
  40392e:	f4a162        	movi	a6, 0x1f4
  403931:	616a      	add.n	a6, a1, a6
  403933:	0452a5        	call8	407e5c <_free_r>
  403936:	a06162        	s32i	a6, a1, 0x280
  403939:	f4a8c6        	j	400be0 <_vfprintf_r+0x190>
  40393c:	8f2122        	l32i	a2, a1, 0x23c
  40393f:	62cc      	bnez.n	a2, 403949 <_vfprintf_r+0x2ef9>
  403941:	030c      	movi.n	a3, 0
  403943:	8e6132        	s32i	a3, a1, 0x238
  403946:	0008c6        	j	40396d <_vfprintf_r+0x2f1d>
  403949:	24a2c2        	movi	a12, 0x224
  40394c:	10c192        	addi	a9, a1, 16
  40394f:	a221b2        	l32i	a11, a1, 0x288
  403952:	a421a2        	l32i	a10, a1, 0x290
  403955:	c9ca      	add.n	a12, a9, a12
  403957:	0c0525        	call8	40f9a8 <__sprint_r>
  40395a:	fe3a16        	beqz	a10, 403941 <_vfprintf_r+0x2ef1>
  40395d:	000306        	j	40396d <_vfprintf_r+0x2f1d>
  403960:	a62122        	l32i	a2, a1, 0x298
  403963:	628c      	beqz.n	a2, 40396d <_vfprintf_r+0x2f1d>
  403965:	a421a2        	l32i	a10, a1, 0x290
  403968:	02bd      	mov.n	a11, a2
  40396a:	044f25        	call8	407e5c <_free_r>
  40396d:	a22132        	l32i	a3, a1, 0x288
  403970:	192322        	l32i	a2, a3, 100
  403973:	0ee207        	bbsi	a2, 0, 403985 <_vfprintf_r+0x2f35>
  403976:	061322        	l16ui	a2, a3, 12
  403979:	08e297        	bbsi	a2, 9, 403985 <_vfprintf_r+0x2f35>
  40397c:	58c3a2        	addi	a10, a3, 88
  40397f:	201110        	or	a1, a1, a1
  403982:	0fa1e5        	call8	4133a0 <__dummy_lock>
  403985:	54a2b2        	movi	a11, 0x254
  403988:	9521a2        	l32i	a10, a1, 0x254
  40398b:	b1ba      	add.n	a11, a1, a11
  40398d:	0fd825        	call8	413710 <pthread_setcancelstate>
  403990:	a22182        	l32i	a8, a1, 0x288
  403993:	ae2192        	l32i	a9, a1, 0x2b8
  403996:	061822        	l16ui	a2, a8, 12
  403999:	f37c      	movi.n	a3, -1
  40399b:	042620        	extui	a2, a2, 6, 1
  40399e:	939320        	movnez	a9, a3, a2
  4039a1:	ae6192        	s32i	a9, a1, 0x2b8
  4039a4:	000986        	j	4039ce <_vfprintf_r+0x2f7e>
  4039a7:	00          	.byte 00
  4039a8:	00          	.byte 00
  4039a9:	9f2162        	l32i	a6, a1, 0x27c
  4039ac:	9f2182        	l32i	a8, a1, 0x27c
  4039af:	a61b      	addi.n	a10, a6, 1
  4039b1:	982162        	l32i	a6, a1, 0x260
  4039b4:	02a867        	bge	a8, a6, 4039ba <_vfprintf_r+0x2f6a>
  4039b7:	f4f146        	j	400d80 <_vfprintf_r+0x330>
  4039ba:	f4f286        	j	400d88 <_vfprintf_r+0x338>
  4039bd:	9f2192        	l32i	a9, a1, 0x27c
  4039c0:	982162        	l32i	a6, a1, 0x260
  4039c3:	b91b      	addi.n	a11, a9, 1
  4039c5:	02a967        	bge	a9, a6, 4039cb <_vfprintf_r+0x2f7b>
  4039c8:	f53386        	j	400e9a <_vfprintf_r+0x44a>
  4039cb:	f534c6        	j	400ea2 <_vfprintf_r+0x452>
  4039ce:	ae2122        	l32i	a2, a1, 0x2b8
  4039d1:	f01d      	retw.n
	...

004039d4 <vfprintf>:
  4039d4:	006136        	entry	a1, 48
  4039d7:	0149      	s32i.n	a4, a1, 0
  4039d9:	1159      	s32i.n	a5, a1, 4
  4039db:	2169      	s32i.n	a6, a1, 8
  4039dd:	0fd3a5        	call8	413718 <__getreent>
  4039e0:	01d8      	l32i.n	a13, a1, 0
  4039e2:	11e8      	l32i.n	a14, a1, 4
  4039e4:	21f8      	l32i.n	a15, a1, 8
  4039e6:	02bd      	mov.n	a11, a2
  4039e8:	03cd      	mov.n	a12, a3
  4039ea:	fd0665        	call8	400a50 <_vfprintf_r>
  4039ed:	0a2d      	mov.n	a2, a10
  4039ef:	f01d      	retw.n
  4039f1:	000000        	ill

004039f4 <__sbprintf>:
  4039f4:	024136        	entry	a1, 0x120
  4039f7:	061382        	l16ui	a8, a3, 12
  4039fa:	fdaf92        	movi	a9, -3
  4039fd:	108890        	and	a8, a8, a9
  403a00:	465182        	s16i	a8, a1, 140
  403a03:	192382        	l32i	a8, a3, 100
  403a06:	3c6152        	s32i	a5, a1, 240
  403a09:	396182        	s32i	a8, a1, 228
  403a0c:	071382        	l16ui	a8, a3, 14
  403a0f:	00a092        	movi	a9, 0
  403a12:	475182        	s16i	a8, a1, 142
  403a15:	8388      	l32i.n	a8, a3, 32
  403a17:	266192        	s32i	a9, a1, 152
  403a1a:	286182        	s32i	a8, a1, 160
  403a1d:	a388      	l32i.n	a8, a3, 40
  403a1f:	3d6162        	s32i	a6, a1, 244
  403a22:	2a6182        	s32i	a8, a1, 168
  403a25:	80a082        	movi	a8, 128
  403a28:	805810        	add	a5, a8, a1
  403a2b:	58c5a2        	addi	a10, a5, 88
  403a2e:	226182        	s32i	a8, a1, 136
  403a31:	256182        	s32i	a8, a1, 148
  403a34:	3e6172        	s32i	a7, a1, 248
  403a37:	206112        	s32i	a1, a1, 128
  403a3a:	246112        	s32i	a1, a1, 144
  403a3d:	0f9625        	call8	4133a0 <__dummy_lock>
  403a40:	3c21d2        	l32i	a13, a1, 240
  403a43:	3d21e2        	l32i	a14, a1, 244
  403a46:	3e21f2        	l32i	a15, a1, 248
  403a49:	80a0b2        	movi	a11, 128
  403a4c:	04cd      	mov.n	a12, a4
  403a4e:	bb1a      	add.n	a11, a11, a1
  403a50:	02ad      	mov.n	a10, a2
  403a52:	fcffe5        	call8	400a50 <_vfprintf_r>
  403a55:	0a4d      	mov.n	a4, a10
  403a57:	00ea96        	bltz	a10, 403a69 <__sbprintf+0x75>
  403a5a:	80a0b2        	movi	a11, 128
  403a5d:	02ad      	mov.n	a10, a2
  403a5f:	bb1a      	add.n	a11, a11, a1
  403a61:	035025        	call8	406f64 <_fflush_r>
  403a64:	f27c      	movi.n	a2, -1
  403a66:	9342a0        	movnez	a4, a2, a10
  403a69:	461122        	l16ui	a2, a1, 140
  403a6c:	40a082        	movi	a8, 64
  403a6f:	080287        	bnone	a2, a8, 403a7b <__sbprintf+0x87>
  403a72:	061322        	l16ui	a2, a3, 12
  403a75:	202280        	or	a2, a2, a8
  403a78:	065322        	s16i	a2, a3, 12
  403a7b:	d8a0a2        	movi	a10, 216
  403a7e:	80a1a0        	add	a10, a1, a10
  403a81:	0f91e5        	call8	4133a0 <__dummy_lock>
  403a84:	202440        	or	a2, a4, a4
  403a87:	f01d      	retw.n
  403a89:	000000        	ill

00403a8c <get_arg>:
  403a8c:	004136        	entry	a1, 32
  403a8f:	0498      	l32i.n	a9, a4, 0
  403a91:	8a1c      	movi.n	a10, 24
  403a93:	4c2c      	movi.n	a12, 36
  403a95:	000a06        	j	403ac1 <get_arg+0x35>
  403a98:	2388      	l32i.n	a8, a3, 8
  403a9a:	b84b      	addi.n	a11, a8, 4
  403a9c:	23b9      	s32i.n	a11, a3, 8
  403a9e:	062ab7        	blt	a10, a11, 403aa8 <get_arg+0x1c>
  403aa1:	1388      	l32i.n	a8, a3, 4
  403aa3:	000206        	j	403aaf <get_arg+0x23>
  403aa6:	00          	.byte 00
  403aa7:	00          	.byte 00
  403aa8:	012a87        	blt	a10, a8, 403aad <get_arg+0x21>
  403aab:	23c9      	s32i.n	a12, a3, 8
  403aad:	0388      	l32i.n	a8, a3, 0
  403aaf:	23b8      	l32i.n	a11, a3, 8
  403ab1:	88ba      	add.n	a8, a8, a11
  403ab3:	fcc882        	addi	a8, a8, -4
  403ab6:	08b8      	l32i.n	a11, a8, 0
  403ab8:	1189e0        	slli	a8, a9, 2
  403abb:	858a      	add.n	a8, a5, a8
  403abd:	08b9      	s32i.n	a11, a8, 0
  403abf:	991b      	addi.n	a9, a9, 1
  403ac1:	d3a297        	bge	a2, a9, 403a98 <get_arg+0xc>
  403ac4:	1122e0        	slli	a2, a2, 2
  403ac7:	552a      	add.n	a5, a5, a2
  403ac9:	0499      	s32i.n	a9, a4, 0
  403acb:	0528      	l32i.n	a2, a5, 0
  403acd:	f01d      	retw.n
	...

00403ad0 <__svfscanf_r>:
  403ad0:	072136        	entry	a1, 0x390
  403ad3:	208770        	or	a8, a7, a7
  403ad6:	207110        	or	a7, a1, a1
  403ad9:	f0a2b2        	movi	a11, 0x2f0
  403adc:	c96722        	s32i	a2, a7, 0x324
  403adf:	b7ba      	add.n	a11, a7, a11
  403ae1:	020c      	movi.n	a2, 0
  403ae3:	01a0a2        	movi	a10, 1
  403ae6:	bd6722        	s32i	a2, a7, 0x2f4
  403ae9:	c36732        	s32i	a3, a7, 0x30c
  403aec:	ce6742        	s32i	a4, a7, 0x338
  403aef:	c06752        	s32i	a5, a7, 0x300
  403af2:	c16762        	s32i	a6, a7, 0x304
  403af5:	c26782        	s32i	a8, a7, 0x308
  403af8:	0fc165        	call8	413710 <pthread_setcancelstate>
  403afb:	192322        	l32i	a2, a3, 100
  403afe:	0be207        	bbsi	a2, 0, 403b0d <__svfscanf_r+0x3d>
  403b01:	061322        	l16ui	a2, a3, 12
  403b04:	05e297        	bbsi	a2, 9, 403b0d <__svfscanf_r+0x3d>
  403b07:	58c3a2        	addi	a10, a3, 88
  403b0a:	0f8965        	call8	4133a0 <__dummy_lock>
  403b0d:	c32722        	l32i	a2, a7, 0x30c
  403b10:	f17d31        	l32r	a3, 400104 <_init-0x28c>
  403b13:	061242        	l16ui	a4, a2, 12
  403b16:	232480        	sext	a2, a4, 15
  403b19:	178347        	bany	a3, a4, 403b34 <__svfscanf_r+0x64>
  403b1c:	202230        	or	a2, a2, a3
  403b1f:	c32732        	l32i	a3, a7, 0x30c
  403b22:	c32782        	l32i	a8, a7, 0x30c
  403b25:	065322        	s16i	a2, a3, 12
  403b28:	192322        	l32i	a2, a3, 100
  403b2b:	f17731        	l32r	a3, 400108 <_init-0x288>
  403b2e:	102230        	and	a2, a2, a3
  403b31:	196822        	s32i	a2, a8, 100
  403b34:	090c      	movi.n	a9, 0
  403b36:	cd6792        	s32i	a9, a7, 0x334
  403b39:	c66792        	s32i	a9, a7, 0x318
  403b3c:	ca6792        	s32i	a9, a7, 0x328
  403b3f:	202990        	or	a2, a9, a9
  403b42:	c76792        	s32i	a9, a7, 0x31c
  403b45:	c86792        	s32i	a9, a7, 0x320
  403b48:	ce27f2        	l32i	a15, a7, 0x338
  403b4b:	f8a242        	movi	a4, 0x2f8
  403b4e:	000f32        	l8ui	a3, a15, 0
  403b51:	447a      	add.n	a4, a4, a7
  403b53:	01cff2        	addi	a15, a15, 1
  403b56:	005432        	s16i	a3, a4, 0
  403b59:	ce67f2        	s32i	a15, a7, 0x338
  403b5c:	13cc      	bnez.n	a3, 403b61 <__svfscanf_r+0x91>
  403b5e:	0903c6        	j	405f71 <__svfscanf_r+0x24a1>
  403b61:	0386a5        	call8	4073cc <__locale_ctype_ptr>
  403b64:	001432        	l16ui	a3, a4, 0
  403b67:	045d      	mov.n	a5, a4
  403b69:	aa3a      	add.n	a10, a10, a3
  403b6b:	010a42        	l8ui	a4, a10, 1
  403b6e:	860c      	movi.n	a6, 8
  403b70:	104460        	and	a4, a4, a6
  403b73:	cc6742        	s32i	a4, a7, 0x330
  403b76:	04a416        	beqz	a4, 403bc4 <__svfscanf_r+0xf4>
  403b79:	c32782        	l32i	a8, a7, 0x30c
  403b7c:	1838      	l32i.n	a3, a8, 4
  403b7e:	1a13a6        	blti	a3, 1, 403b9c <__svfscanf_r+0xcc>
  403b81:	0384a5        	call8	4073cc <__locale_ctype_ptr>
  403b84:	c32792        	l32i	a9, a7, 0x30c
  403b87:	002932        	l32i	a3, a9, 0
  403b8a:	000342        	l8ui	a4, a3, 0
  403b8d:	80aa40        	add	a10, a10, a4
  403b90:	010a42        	l8ui	a4, a10, 1
  403b93:	08a0a2        	movi	a10, 8
  403b96:	1284a7        	bany	a4, a10, 403bac <__svfscanf_r+0xdc>
  403b99:	ffeac6        	j	403b48 <__svfscanf_r+0x78>
  403b9c:	c327b2        	l32i	a11, a7, 0x30c
  403b9f:	c927a2        	l32i	a10, a7, 0x324
  403ba2:	044565        	call8	407ff8 <__srefill_r>
  403ba5:	fd8a16        	beqz	a10, 403b81 <__svfscanf_r+0xb1>
  403ba8:	ffe706        	j	403b48 <__svfscanf_r+0x78>
  403bab:	00          	.byte 00
  403bac:	c32782        	l32i	a8, a7, 0x30c
  403baf:	c727f2        	l32i	a15, a7, 0x31c
  403bb2:	1848      	l32i.n	a4, a8, 4
  403bb4:	ff1b      	addi.n	a15, a15, 1
  403bb6:	440b      	addi.n	a4, a4, -1
  403bb8:	331b      	addi.n	a3, a3, 1
  403bba:	c767f2        	s32i	a15, a7, 0x31c
  403bbd:	1849      	s32i.n	a4, a8, 4
  403bbf:	0839      	s32i.n	a3, a8, 0
  403bc1:	ffed06        	j	403b79 <__svfscanf_r+0xa9>
  403bc4:	542c      	movi.n	a4, 37
  403bc6:	469347        	bne	a3, a4, 403c10 <__svfscanf_r+0x140>
  403bc9:	cc2732        	l32i	a3, a7, 0x330
  403bcc:	024d      	mov.n	a4, a2
  403bce:	ce2762        	l32i	a6, a7, 0x338
  403bd1:	038d      	mov.n	a8, a3
  403bd3:	c46732        	s32i	a3, a7, 0x310
  403bd6:	1a0c      	movi.n	a10, 1
  403bd8:	8fa0b2        	movi	a11, 143
  403bdb:	290c      	movi.n	a9, 2
  403bdd:	68a0e2        	movi	a14, 104
  403be0:	4d0c      	movi.n	a13, 4
